
kernel:     file format elf32-i386


Disassembly of section .text:

00100000 <main>:
static void mpmain(void) __attribute__((noreturn));

// Bootstrap processor starts running C code here.
int
main(void)
{
  100000:	8d 4c 24 04          	lea    0x4(%esp),%ecx
  100004:	83 e4 f0             	and    $0xfffffff0,%esp
  100007:	ff 71 fc             	pushl  -0x4(%ecx)
  10000a:	55                   	push   %ebp
  10000b:	89 e5                	mov    %esp,%ebp
  10000d:	53                   	push   %ebx
  10000e:	51                   	push   %ecx
  mpinit(); // collect info about this machine
  10000f:	e8 5c 2a 00 00       	call   102a70 <mpinit>
  lapicinit(mpbcpu());
  100014:	e8 37 2a 00 00       	call   102a50 <mpbcpu>
  100019:	83 ec 0c             	sub    $0xc,%esp
  10001c:	50                   	push   %eax
  10001d:	e8 2e 26 00 00       	call   102650 <lapicinit>
  ksegment();
  100022:	e8 19 32 00 00       	call   103240 <ksegment>
  picinit();       // interrupt controller
  100027:	e8 84 2c 00 00       	call   102cb0 <picinit>
  ioapicinit();    // another interrupt controller
  10002c:	e8 2f 22 00 00       	call   102260 <ioapicinit>
  consoleinit();   // I/O devices & their interrupts
  100031:	e8 8a 09 00 00       	call   1009c0 <consoleinit>
  uartinit();      // serial port
  100036:	e8 e5 53 00 00       	call   105420 <uartinit>
  cprintf("\ncpu%d: starting xv6\n\n", cpu());
  10003b:	e8 00 27 00 00       	call   102740 <cpu>
  100040:	59                   	pop    %ecx
  100041:	5b                   	pop    %ebx
  100042:	50                   	push   %eax
  100043:	68 2e 64 10 00       	push   $0x10642e
  100048:	e8 53 06 00 00       	call   1006a0 <cprintf>

  kinit();         // physical memory allocator
  10004d:	e8 fe 23 00 00       	call   102450 <kinit>
  pinit();         // process table
  100052:	e8 c9 31 00 00       	call   103220 <pinit>
  tvinit();        // trap vectors
  100057:	e8 74 50 00 00       	call   1050d0 <tvinit>
  binit();         // buffer cache
  10005c:	e8 ef 00 00 00       	call   100150 <binit>
  fileinit();      // file table
  100061:	e8 0a 0e 00 00       	call   100e70 <fileinit>
  iinit();         // inode cache
  100066:	e8 45 14 00 00       	call   1014b0 <iinit>
  ideinit();       // disk
  10006b:	e8 b0 1f 00 00       	call   102020 <ideinit>

  //ethinit();       // ethernet
  if(!ismp)
  100070:	a1 e4 ca 10 00       	mov    0x10cae4,%eax
  100075:	83 c4 10             	add    $0x10,%esp
  100078:	85 c0                	test   %eax,%eax
  10007a:	0f 84 b8 00 00 00    	je     100138 <main+0x138>
    timerinit();   // uniprocessor timer
  userinit();      // first user process
  100080:	e8 db 35 00 00       	call   103660 <userinit>
  struct cpu *c;
  char *stack;

  // Write bootstrap code to unused memory at 0x7000.
  code = (uchar*)0x7000;
  memmove(code, _binary_bootother_start, (uint)_binary_bootother_size);
  100085:	83 ec 04             	sub    $0x4,%esp

  for(c = cpus; c < cpus+ncpu; c++){
  100088:	bb 00 cb 10 00       	mov    $0x10cb00,%ebx
  struct cpu *c;
  char *stack;

  // Write bootstrap code to unused memory at 0x7000.
  code = (uchar*)0x7000;
  memmove(code, _binary_bootother_start, (uint)_binary_bootother_size);
  10008d:	68 6a 00 00 00       	push   $0x6a
  100092:	68 54 97 10 00       	push   $0x109754
  100097:	68 00 70 00 00       	push   $0x7000
  10009c:	e8 4f 3f 00 00       	call   103ff0 <memmove>

  for(c = cpus; c < cpus+ncpu; c++){
  1000a1:	69 05 e0 d0 10 00 bc 	imul   $0xbc,0x10d0e0,%eax
  1000a8:	00 00 00 
  1000ab:	83 c4 10             	add    $0x10,%esp
  1000ae:	05 00 cb 10 00       	add    $0x10cb00,%eax
  1000b3:	39 d8                	cmp    %ebx,%eax
  1000b5:	76 7c                	jbe    100133 <main+0x133>
  1000b7:	89 f6                	mov    %esi,%esi
  1000b9:	8d bc 27 00 00 00 00 	lea    0x0(%edi,%eiz,1),%edi
    if(c == cpus+cpu())  // We've started already.
  1000c0:	e8 7b 26 00 00       	call   102740 <cpu>
  1000c5:	69 c0 bc 00 00 00    	imul   $0xbc,%eax,%eax
  1000cb:	05 00 cb 10 00       	add    $0x10cb00,%eax
  1000d0:	39 c3                	cmp    %eax,%ebx
  1000d2:	74 46                	je     10011a <main+0x11a>
      continue;

    // Fill in %esp, %eip and start code on cpu.
    stack = kalloc(KSTACKSIZE);
  1000d4:	83 ec 0c             	sub    $0xc,%esp
  1000d7:	68 00 10 00 00       	push   $0x1000
  1000dc:	e8 af 23 00 00       	call   102490 <kalloc>
    *(void**)(code-4) = stack + KSTACKSIZE;
  1000e1:	05 00 10 00 00       	add    $0x1000,%eax
    *(void**)(code-8) = mpmain;
  1000e6:	c7 05 f8 6f 00 00 80 	movl   $0x102980,0x6ff8
  1000ed:	29 10 00 
    if(c == cpus+cpu())  // We've started already.
      continue;

    // Fill in %esp, %eip and start code on cpu.
    stack = kalloc(KSTACKSIZE);
    *(void**)(code-4) = stack + KSTACKSIZE;
  1000f0:	a3 fc 6f 00 00       	mov    %eax,0x6ffc
    *(void**)(code-8) = mpmain;
    lapicstartap(c->apicid, (uint)code);
  1000f5:	58                   	pop    %eax
  1000f6:	5a                   	pop    %edx
  1000f7:	68 00 70 00 00       	push   $0x7000
  1000fc:	0f b6 03             	movzbl (%ebx),%eax
  1000ff:	50                   	push   %eax
  100100:	e8 1b 27 00 00       	call   102820 <lapicstartap>
  100105:	83 c4 10             	add    $0x10,%esp
  100108:	90                   	nop
  100109:	8d b4 26 00 00 00 00 	lea    0x0(%esi,%eiz,1),%esi

    // Wait for cpu to get through bootstrap.
    while(c->booted == 0)
  100110:	8b 83 a8 00 00 00    	mov    0xa8(%ebx),%eax
  100116:	85 c0                	test   %eax,%eax
  100118:	74 f6                	je     100110 <main+0x110>

  // Write bootstrap code to unused memory at 0x7000.
  code = (uchar*)0x7000;
  memmove(code, _binary_bootother_start, (uint)_binary_bootother_size);

  for(c = cpus; c < cpus+ncpu; c++){
  10011a:	69 05 e0 d0 10 00 bc 	imul   $0xbc,0x10d0e0,%eax
  100121:	00 00 00 
  100124:	81 c3 bc 00 00 00    	add    $0xbc,%ebx
  10012a:	05 00 cb 10 00       	add    $0x10cb00,%eax
  10012f:	39 c3                	cmp    %eax,%ebx
  100131:	72 8d                	jb     1000c0 <main+0xc0>
    timerinit();   // uniprocessor timer
  userinit();      // first user process
  bootothers();    // start other processors

  // Finish setting up this processor in mpmain.
  mpmain();
  100133:	e8 48 28 00 00       	call   102980 <mpmain>
  iinit();         // inode cache
  ideinit();       // disk

  //ethinit();       // ethernet
  if(!ismp)
    timerinit();   // uniprocessor timer
  100138:	e8 33 4f 00 00       	call   105070 <timerinit>
  10013d:	e9 3e ff ff ff       	jmp    100080 <main+0x80>
  100142:	66 90                	xchg   %ax,%ax
  100144:	66 90                	xchg   %ax,%ax
  100146:	66 90                	xchg   %ax,%ax
  100148:	66 90                	xchg   %ax,%ax
  10014a:	66 90                	xchg   %ax,%ax
  10014c:	66 90                	xchg   %ax,%ax
  10014e:	66 90                	xchg   %ax,%ax

00100150 <binit>:
  struct buf head;
} bcache;

void
binit(void)
{
  100150:	83 ec 14             	sub    $0x14,%esp
  struct buf *b;

  initlock(&bcache.lock, "bcache");
  100153:	68 a0 5f 10 00       	push   $0x105fa0
  100158:	68 a0 98 10 00       	push   $0x1098a0
  10015d:	e8 be 3b 00 00       	call   103d20 <initlock>

//PAGEBREAK!
  // Create linked list of buffers
  bcache.head.prev = &bcache.head;
  100162:	c7 05 d0 ad 10 00 c4 	movl   $0x10adc4,0x10add0
  100169:	ad 10 00 
  bcache.head.next = &bcache.head;
  10016c:	c7 05 d4 ad 10 00 c4 	movl   $0x10adc4,0x10add4
  100173:	ad 10 00 
  100176:	83 c4 10             	add    $0x10,%esp
  100179:	b9 c4 ad 10 00       	mov    $0x10adc4,%ecx
  for(b = bcache.buf; b < bcache.buf+NBUF; b++){
  10017e:	b8 d4 98 10 00       	mov    $0x1098d4,%eax
  100183:	eb 05                	jmp    10018a <binit+0x3a>
  100185:	8d 76 00             	lea    0x0(%esi),%esi
  100188:	89 d0                	mov    %edx,%eax
    b->next = bcache.head.next;
  10018a:	89 48 10             	mov    %ecx,0x10(%eax)
    b->prev = &bcache.head;
  10018d:	c7 40 0c c4 ad 10 00 	movl   $0x10adc4,0xc(%eax)
  100194:	89 c1                	mov    %eax,%ecx
    b->dev = -1;
    bcache.head.next->prev = b;
  100196:	8b 15 d4 ad 10 00    	mov    0x10add4,%edx
  bcache.head.prev = &bcache.head;
  bcache.head.next = &bcache.head;
  for(b = bcache.buf; b < bcache.buf+NBUF; b++){
    b->next = bcache.head.next;
    b->prev = &bcache.head;
    b->dev = -1;
  10019c:	c7 40 04 ff ff ff ff 	movl   $0xffffffff,0x4(%eax)
    bcache.head.next->prev = b;
  1001a3:	89 42 0c             	mov    %eax,0xc(%edx)

//PAGEBREAK!
  // Create linked list of buffers
  bcache.head.prev = &bcache.head;
  bcache.head.next = &bcache.head;
  for(b = bcache.buf; b < bcache.buf+NBUF; b++){
  1001a6:	8d 90 18 02 00 00    	lea    0x218(%eax),%edx
    b->next = bcache.head.next;
    b->prev = &bcache.head;
    b->dev = -1;
    bcache.head.next->prev = b;
    bcache.head.next = b;
  1001ac:	a3 d4 ad 10 00       	mov    %eax,0x10add4

//PAGEBREAK!
  // Create linked list of buffers
  bcache.head.prev = &bcache.head;
  bcache.head.next = &bcache.head;
  for(b = bcache.buf; b < bcache.buf+NBUF; b++){
  1001b1:	81 fa c4 ad 10 00    	cmp    $0x10adc4,%edx
  1001b7:	75 cf                	jne    100188 <binit+0x38>
    b->prev = &bcache.head;
    b->dev = -1;
    bcache.head.next->prev = b;
    bcache.head.next = b;
  }
}
  1001b9:	83 c4 0c             	add    $0xc,%esp
  1001bc:	c3                   	ret    
  1001bd:	8d 76 00             	lea    0x0(%esi),%esi

001001c0 <bread>:
}

// Return a B_BUSY buf with the contents of the indicated disk sector.
struct buf*
bread(uint dev, uint sector)
{
  1001c0:	57                   	push   %edi
  1001c1:	56                   	push   %esi
  1001c2:	53                   	push   %ebx
  1001c3:	8b 74 24 10          	mov    0x10(%esp),%esi
  1001c7:	8b 7c 24 14          	mov    0x14(%esp),%edi
static struct buf*
bget(uint dev, uint sector)
{
  struct buf *b;

  acquire(&bcache.lock);
  1001cb:	83 ec 0c             	sub    $0xc,%esp
  1001ce:	68 a0 98 10 00       	push   $0x1098a0
  1001d3:	e8 68 3b 00 00       	call   103d40 <acquire>
  1001d8:	83 c4 10             	add    $0x10,%esp

 loop:
  // Try for cached block.
  for(b = bcache.head.next; b != &bcache.head; b = b->next){
  1001db:	8b 1d d4 ad 10 00    	mov    0x10add4,%ebx
  1001e1:	81 fb c4 ad 10 00    	cmp    $0x10adc4,%ebx
  1001e7:	75 12                	jne    1001fb <bread+0x3b>
  1001e9:	eb 35                	jmp    100220 <bread+0x60>
  1001eb:	90                   	nop
  1001ec:	8d 74 26 00          	lea    0x0(%esi,%eiz,1),%esi
  1001f0:	8b 5b 10             	mov    0x10(%ebx),%ebx
  1001f3:	81 fb c4 ad 10 00    	cmp    $0x10adc4,%ebx
  1001f9:	74 25                	je     100220 <bread+0x60>
    if(b->dev == dev && b->sector == sector){
  1001fb:	3b 73 04             	cmp    0x4(%ebx),%esi
  1001fe:	75 f0                	jne    1001f0 <bread+0x30>
  100200:	3b 7b 08             	cmp    0x8(%ebx),%edi
  100203:	75 eb                	jne    1001f0 <bread+0x30>
      if(!(b->flags & B_BUSY)){
  100205:	8b 03                	mov    (%ebx),%eax
  100207:	a8 01                	test   $0x1,%al
  100209:	74 68                	je     100273 <bread+0xb3>
        b->flags |= B_BUSY;
        release(&bcache.lock);
        return b;
      }
      sleep(b, &bcache.lock);
  10020b:	83 ec 08             	sub    $0x8,%esp
  10020e:	68 a0 98 10 00       	push   $0x1098a0
  100213:	53                   	push   %ebx
  100214:	e8 87 36 00 00       	call   1038a0 <sleep>
  100219:	83 c4 10             	add    $0x10,%esp
  10021c:	eb bd                	jmp    1001db <bread+0x1b>
  10021e:	66 90                	xchg   %ax,%ax
      goto loop;
    }
  }

  // Allocate fresh block.
  for(b = bcache.head.prev; b != &bcache.head; b = b->prev){
  100220:	8b 1d d0 ad 10 00    	mov    0x10add0,%ebx
  100226:	81 fb c4 ad 10 00    	cmp    $0x10adc4,%ebx
  10022c:	75 0d                	jne    10023b <bread+0x7b>
  10022e:	eb 5a                	jmp    10028a <bread+0xca>
  100230:	8b 5b 0c             	mov    0xc(%ebx),%ebx
  100233:	81 fb c4 ad 10 00    	cmp    $0x10adc4,%ebx
  100239:	74 4f                	je     10028a <bread+0xca>
    if((b->flags & B_BUSY) == 0){
  10023b:	f6 03 01             	testb  $0x1,(%ebx)
  10023e:	75 f0                	jne    100230 <bread+0x70>
      b->dev = dev;
      b->sector = sector;
      b->flags = B_BUSY;
      release(&bcache.lock);
  100240:	83 ec 0c             	sub    $0xc,%esp
  }

  // Allocate fresh block.
  for(b = bcache.head.prev; b != &bcache.head; b = b->prev){
    if((b->flags & B_BUSY) == 0){
      b->dev = dev;
  100243:	89 73 04             	mov    %esi,0x4(%ebx)
      b->sector = sector;
  100246:	89 7b 08             	mov    %edi,0x8(%ebx)
      b->flags = B_BUSY;
  100249:	c7 03 01 00 00 00    	movl   $0x1,(%ebx)
      release(&bcache.lock);
  10024f:	68 a0 98 10 00       	push   $0x1098a0
  100254:	e8 c7 3c 00 00       	call   103f20 <release>
  100259:	83 c4 10             	add    $0x10,%esp
bread(uint dev, uint sector)
{
  struct buf *b;

  b = bget(dev, sector);
  if(!(b->flags & B_VALID))
  10025c:	f6 03 02             	testb  $0x2,(%ebx)
  10025f:	75 0c                	jne    10026d <bread+0xad>
    iderw(b);
  100261:	83 ec 0c             	sub    $0xc,%esp
  100264:	53                   	push   %ebx
  100265:	e8 06 1f 00 00       	call   102170 <iderw>
  10026a:	83 c4 10             	add    $0x10,%esp
  return b;
}
  10026d:	89 d8                	mov    %ebx,%eax
  10026f:	5b                   	pop    %ebx
  100270:	5e                   	pop    %esi
  100271:	5f                   	pop    %edi
  100272:	c3                   	ret    
  // Try for cached block.
  for(b = bcache.head.next; b != &bcache.head; b = b->next){
    if(b->dev == dev && b->sector == sector){
      if(!(b->flags & B_BUSY)){
        b->flags |= B_BUSY;
        release(&bcache.lock);
  100273:	83 ec 0c             	sub    $0xc,%esp
 loop:
  // Try for cached block.
  for(b = bcache.head.next; b != &bcache.head; b = b->next){
    if(b->dev == dev && b->sector == sector){
      if(!(b->flags & B_BUSY)){
        b->flags |= B_BUSY;
  100276:	83 c8 01             	or     $0x1,%eax
  100279:	89 03                	mov    %eax,(%ebx)
        release(&bcache.lock);
  10027b:	68 a0 98 10 00       	push   $0x1098a0
  100280:	e8 9b 3c 00 00       	call   103f20 <release>
  100285:	83 c4 10             	add    $0x10,%esp
  100288:	eb d2                	jmp    10025c <bread+0x9c>
      b->flags = B_BUSY;
      release(&bcache.lock);
      return b;
    }
  }
  panic("bget: no buffers");
  10028a:	83 ec 0c             	sub    $0xc,%esp
  10028d:	68 a7 5f 10 00       	push   $0x105fa7
  100292:	e8 89 07 00 00       	call   100a20 <panic>
  100297:	89 f6                	mov    %esi,%esi
  100299:	8d bc 27 00 00 00 00 	lea    0x0(%edi,%eiz,1),%edi

001002a0 <bwrite>:
}

// Write b's contents to disk.  Must be locked.
void
bwrite(struct buf *b)
{
  1002a0:	83 ec 0c             	sub    $0xc,%esp
  1002a3:	8b 54 24 10          	mov    0x10(%esp),%edx
  if((b->flags & B_BUSY) == 0)
  1002a7:	8b 02                	mov    (%edx),%eax
  1002a9:	a8 01                	test   $0x1,%al
  1002ab:	74 11                	je     1002be <bwrite+0x1e>
    panic("bwrite");
  b->flags |= B_DIRTY;
  1002ad:	83 c8 04             	or     $0x4,%eax
  1002b0:	89 02                	mov    %eax,(%edx)
  iderw(b);
  1002b2:	89 54 24 10          	mov    %edx,0x10(%esp)
}
  1002b6:	83 c4 0c             	add    $0xc,%esp
bwrite(struct buf *b)
{
  if((b->flags & B_BUSY) == 0)
    panic("bwrite");
  b->flags |= B_DIRTY;
  iderw(b);
  1002b9:	e9 b2 1e 00 00       	jmp    102170 <iderw>
// Write b's contents to disk.  Must be locked.
void
bwrite(struct buf *b)
{
  if((b->flags & B_BUSY) == 0)
    panic("bwrite");
  1002be:	83 ec 0c             	sub    $0xc,%esp
  1002c1:	68 b8 5f 10 00       	push   $0x105fb8
  1002c6:	e8 55 07 00 00       	call   100a20 <panic>
  1002cb:	90                   	nop
  1002cc:	8d 74 26 00          	lea    0x0(%esi,%eiz,1),%esi

001002d0 <brelse>:
}

// Release the buffer b.
void
brelse(struct buf *b)
{
  1002d0:	53                   	push   %ebx
  1002d1:	83 ec 08             	sub    $0x8,%esp
  1002d4:	8b 5c 24 10          	mov    0x10(%esp),%ebx
  if((b->flags & B_BUSY) == 0)
  1002d8:	f6 03 01             	testb  $0x1,(%ebx)
  1002db:	74 55                	je     100332 <brelse+0x62>
    panic("brelse");

  acquire(&bcache.lock);
  1002dd:	83 ec 0c             	sub    $0xc,%esp
  1002e0:	68 a0 98 10 00       	push   $0x1098a0
  1002e5:	e8 56 3a 00 00       	call   103d40 <acquire>

  b->next->prev = b->prev;
  1002ea:	8b 43 10             	mov    0x10(%ebx),%eax
  1002ed:	8b 53 0c             	mov    0xc(%ebx),%edx
  1002f0:	89 50 0c             	mov    %edx,0xc(%eax)
  b->prev->next = b->next;
  1002f3:	8b 53 0c             	mov    0xc(%ebx),%edx
  1002f6:	89 42 10             	mov    %eax,0x10(%edx)
  b->next = bcache.head.next;
  1002f9:	a1 d4 ad 10 00       	mov    0x10add4,%eax
  b->prev = &bcache.head;
  1002fe:	c7 43 0c c4 ad 10 00 	movl   $0x10adc4,0xc(%ebx)

  acquire(&bcache.lock);

  b->next->prev = b->prev;
  b->prev->next = b->next;
  b->next = bcache.head.next;
  100305:	89 43 10             	mov    %eax,0x10(%ebx)
  b->prev = &bcache.head;
  bcache.head.next->prev = b;
  100308:	a1 d4 ad 10 00       	mov    0x10add4,%eax
  10030d:	89 58 0c             	mov    %ebx,0xc(%eax)
  bcache.head.next = b;
  100310:	89 1d d4 ad 10 00    	mov    %ebx,0x10add4

  b->flags &= ~B_BUSY;
  100316:	83 23 fe             	andl   $0xfffffffe,(%ebx)
  wakeup(b);
  100319:	89 1c 24             	mov    %ebx,(%esp)
  10031c:	e8 2f 36 00 00       	call   103950 <wakeup>

  release(&bcache.lock);
  100321:	c7 44 24 20 a0 98 10 	movl   $0x1098a0,0x20(%esp)
  100328:	00 
}
  100329:	83 c4 18             	add    $0x18,%esp
  10032c:	5b                   	pop    %ebx
  bcache.head.next = b;

  b->flags &= ~B_BUSY;
  wakeup(b);

  release(&bcache.lock);
  10032d:	e9 ee 3b 00 00       	jmp    103f20 <release>
// Release the buffer b.
void
brelse(struct buf *b)
{
  if((b->flags & B_BUSY) == 0)
    panic("brelse");
  100332:	83 ec 0c             	sub    $0xc,%esp
  100335:	68 bf 5f 10 00       	push   $0x105fbf
  10033a:	e8 e1 06 00 00       	call   100a20 <panic>
  10033f:	90                   	nop

00100340 <consoleread>:
  release(&input.lock);
}

int
consoleread(struct inode *ip, char *dst, int n)
{
  100340:	55                   	push   %ebp
  100341:	57                   	push   %edi
  100342:	56                   	push   %esi
  100343:	53                   	push   %ebx
  100344:	83 ec 28             	sub    $0x28,%esp
  100347:	8b 6c 24 3c          	mov    0x3c(%esp),%ebp
  10034b:	8b 7c 24 40          	mov    0x40(%esp),%edi
  uint target;
  int c;

  iunlock(ip);
  10034f:	55                   	push   %ebp
  100350:	e8 bb 12 00 00       	call   101610 <iunlock>
  target = n;
  acquire(&input.lock);
  100355:	c7 04 24 e0 af 10 00 	movl   $0x10afe0,(%esp)
  10035c:	e8 df 39 00 00       	call   103d40 <acquire>
  while(n > 0){
  100361:	83 c4 10             	add    $0x10,%esp
  100364:	8b 74 24 38          	mov    0x38(%esp),%esi
  100368:	31 c0                	xor    %eax,%eax
  10036a:	85 f6                	test   %esi,%esi
  10036c:	7e 7e                	jle    1003ec <consoleread+0xac>
    while(input.r == input.w){
  10036e:	a1 94 b0 10 00       	mov    0x10b094,%eax
  100373:	3b 05 98 b0 10 00    	cmp    0x10b098,%eax
  100379:	75 41                	jne    1003bc <consoleread+0x7c>
      if(cp->killed){
  10037b:	c7 c3 f8 ff ff ff    	mov    $0xfffffff8,%ebx
  100381:	65 8b 03             	mov    %gs:(%ebx),%eax
  100384:	8b 40 24             	mov    0x24(%eax),%eax
  100387:	85 c0                	test   %eax,%eax
  100389:	74 0f                	je     10039a <consoleread+0x5a>
  10038b:	e9 80 00 00 00       	jmp    100410 <consoleread+0xd0>
  100390:	65 8b 03             	mov    %gs:(%ebx),%eax
  100393:	8b 50 24             	mov    0x24(%eax),%edx
  100396:	85 d2                	test   %edx,%edx
  100398:	75 76                	jne    100410 <consoleread+0xd0>
        release(&input.lock);
        ilock(ip);
        return -1;
      }
      sleep(&input.r, &input.lock);
  10039a:	83 ec 08             	sub    $0x8,%esp
  10039d:	68 e0 af 10 00       	push   $0x10afe0
  1003a2:	68 94 b0 10 00       	push   $0x10b094
  1003a7:	e8 f4 34 00 00       	call   1038a0 <sleep>

  iunlock(ip);
  target = n;
  acquire(&input.lock);
  while(n > 0){
    while(input.r == input.w){
  1003ac:	a1 94 b0 10 00       	mov    0x10b094,%eax
  1003b1:	83 c4 10             	add    $0x10,%esp
  1003b4:	3b 05 98 b0 10 00    	cmp    0x10b098,%eax
  1003ba:	74 d4                	je     100390 <consoleread+0x50>
        ilock(ip);
        return -1;
      }
      sleep(&input.r, &input.lock);
    }
    c = input.buf[input.r++ % INPUT_BUF];
  1003bc:	8d 50 01             	lea    0x1(%eax),%edx
  1003bf:	89 15 94 b0 10 00    	mov    %edx,0x10b094
  1003c5:	89 c2                	mov    %eax,%edx
  1003c7:	83 e2 7f             	and    $0x7f,%edx
  1003ca:	0f be 92 14 b0 10 00 	movsbl 0x10b014(%edx),%edx
    if(c == C('D')){  // EOF
  1003d1:	83 fa 04             	cmp    $0x4,%edx
  1003d4:	74 5f                	je     100435 <consoleread+0xf5>
        // caller gets a 0-byte result.
        input.r--;
      }
      break;
    }
    *dst++ = c;
  1003d6:	83 c7 01             	add    $0x1,%edi
    --n;
  1003d9:	83 ee 01             	sub    $0x1,%esi
    if(c == '\n')
  1003dc:	83 fa 0a             	cmp    $0xa,%edx
        // caller gets a 0-byte result.
        input.r--;
      }
      break;
    }
    *dst++ = c;
  1003df:	88 57 ff             	mov    %dl,-0x1(%edi)
    --n;
    if(c == '\n')
  1003e2:	74 5c                	je     100440 <consoleread+0x100>
  int c;

  iunlock(ip);
  target = n;
  acquire(&input.lock);
  while(n > 0){
  1003e4:	85 f6                	test   %esi,%esi
  1003e6:	75 86                	jne    10036e <consoleread+0x2e>
  1003e8:	8b 44 24 38          	mov    0x38(%esp),%eax
  1003ec:	89 44 24 0c          	mov    %eax,0xc(%esp)
    *dst++ = c;
    --n;
    if(c == '\n')
      break;
  }
  release(&input.lock);
  1003f0:	83 ec 0c             	sub    $0xc,%esp
  1003f3:	68 e0 af 10 00       	push   $0x10afe0
  1003f8:	e8 23 3b 00 00       	call   103f20 <release>
  ilock(ip);
  1003fd:	89 2c 24             	mov    %ebp,(%esp)
  100400:	e8 fb 10 00 00       	call   101500 <ilock>

  return target - n;
  100405:	83 c4 10             	add    $0x10,%esp
  100408:	8b 44 24 0c          	mov    0xc(%esp),%eax
  10040c:	eb 1f                	jmp    10042d <consoleread+0xed>
  10040e:	66 90                	xchg   %ax,%ax
  target = n;
  acquire(&input.lock);
  while(n > 0){
    while(input.r == input.w){
      if(cp->killed){
        release(&input.lock);
  100410:	83 ec 0c             	sub    $0xc,%esp
  100413:	68 e0 af 10 00       	push   $0x10afe0
  100418:	e8 03 3b 00 00       	call   103f20 <release>
        ilock(ip);
  10041d:	89 2c 24             	mov    %ebp,(%esp)
  100420:	e8 db 10 00 00       	call   101500 <ilock>
        return -1;
  100425:	83 c4 10             	add    $0x10,%esp
  100428:	b8 ff ff ff ff       	mov    $0xffffffff,%eax
  }
  release(&input.lock);
  ilock(ip);

  return target - n;
}
  10042d:	83 c4 1c             	add    $0x1c,%esp
  100430:	5b                   	pop    %ebx
  100431:	5e                   	pop    %esi
  100432:	5f                   	pop    %edi
  100433:	5d                   	pop    %ebp
  100434:	c3                   	ret    
      }
      sleep(&input.r, &input.lock);
    }
    c = input.buf[input.r++ % INPUT_BUF];
    if(c == C('D')){  // EOF
      if(n < target){
  100435:	39 74 24 38          	cmp    %esi,0x38(%esp)
  100439:	76 05                	jbe    100440 <consoleread+0x100>
        // Save ^D for next time, to make sure
        // caller gets a 0-byte result.
        input.r--;
  10043b:	a3 94 b0 10 00       	mov    %eax,0x10b094
  100440:	8b 44 24 38          	mov    0x38(%esp),%eax
  100444:	29 f0                	sub    %esi,%eax
  100446:	eb a4                	jmp    1003ec <consoleread+0xac>
  100448:	90                   	nop
  100449:	8d b4 26 00 00 00 00 	lea    0x0(%esi,%eiz,1),%esi

00100450 <consputc>:
  crt[pos] = ' ' | 0x0700;
}

void
consputc(int c)
{
  100450:	55                   	push   %ebp
  100451:	57                   	push   %edi
  100452:	56                   	push   %esi
  100453:	53                   	push   %ebx
  100454:	83 ec 0c             	sub    $0xc,%esp
  if(panicked){
  100457:	8b 0d c0 97 10 00    	mov    0x1097c0,%ecx
  crt[pos] = ' ' | 0x0700;
}

void
consputc(int c)
{
  10045d:	8b 74 24 20          	mov    0x20(%esp),%esi
  if(panicked){
  100461:	85 c9                	test   %ecx,%ecx
  100463:	74 03                	je     100468 <consputc+0x18>
}

static inline void
cli(void)
{
  asm volatile("cli");
  100465:	fa                   	cli    
  100466:	eb fe                	jmp    100466 <consputc+0x16>
    cli();
    for(;;)
      ;
  }

  uartputc(c);
  100468:	83 ec 0c             	sub    $0xc,%esp
}

static inline void
outb(ushort port, uchar data)
{
  asm volatile("out %0,%1" : : "a" (data), "d" (port));
  10046b:	bf d4 03 00 00       	mov    $0x3d4,%edi
  100470:	56                   	push   %esi
  100471:	e8 6a 50 00 00       	call   1054e0 <uartputc>
  100476:	b8 0e 00 00 00       	mov    $0xe,%eax
  10047b:	89 fa                	mov    %edi,%edx
  10047d:	ee                   	out    %al,(%dx)
static inline uchar
inb(ushort port)
{
  uchar data;

  asm volatile("in %1,%0" : "=a" (data) : "d" (port));
  10047e:	bb d5 03 00 00       	mov    $0x3d5,%ebx
  100483:	89 da                	mov    %ebx,%edx
  100485:	ec                   	in     (%dx),%al
{
  int pos;
  
  // Cursor position: col + 80*row.
  outb(CRTPORT, 14);
  pos = inb(CRTPORT+1) << 8;
  100486:	0f b6 c0             	movzbl %al,%eax
}

static inline void
outb(ushort port, uchar data)
{
  asm volatile("out %0,%1" : : "a" (data), "d" (port));
  100489:	89 fa                	mov    %edi,%edx
  10048b:	c1 e0 08             	shl    $0x8,%eax
  10048e:	89 c1                	mov    %eax,%ecx
  100490:	b8 0f 00 00 00       	mov    $0xf,%eax
  100495:	ee                   	out    %al,(%dx)
static inline uchar
inb(ushort port)
{
  uchar data;

  asm volatile("in %1,%0" : "=a" (data) : "d" (port));
  100496:	89 da                	mov    %ebx,%edx
  100498:	ec                   	in     (%dx),%al
  outb(CRTPORT, 15);
  pos |= inb(CRTPORT+1);
  100499:	0f b6 c0             	movzbl %al,%eax

  if(c == '\n')
  10049c:	83 c4 10             	add    $0x10,%esp
  
  // Cursor position: col + 80*row.
  outb(CRTPORT, 14);
  pos = inb(CRTPORT+1) << 8;
  outb(CRTPORT, 15);
  pos |= inb(CRTPORT+1);
  10049f:	09 c8                	or     %ecx,%eax

  if(c == '\n')
  1004a1:	83 fe 0a             	cmp    $0xa,%esi
  1004a4:	74 6b                	je     100511 <consputc+0xc1>
    pos += 80 - pos%80;
  else if(c == BACKSPACE){
  1004a6:	81 fe 00 01 00 00    	cmp    $0x100,%esi
  1004ac:	0f 84 bf 00 00 00    	je     100571 <consputc+0x121>
    if(pos > 0)
      crt[--pos] = ' ' | 0x0700;
  } else
    crt[pos++] = (c&0xff) | 0x0700;  // black on white
  1004b2:	89 f1                	mov    %esi,%ecx
  1004b4:	8d 58 01             	lea    0x1(%eax),%ebx
  1004b7:	0f b6 d1             	movzbl %cl,%edx
  1004ba:	80 ce 07             	or     $0x7,%dh
  1004bd:	66 89 94 00 00 80 0b 	mov    %dx,0xb8000(%eax,%eax,1)
  1004c4:	00 
  
  if((pos/80) >= 24){  // Scroll up.
  1004c5:	81 fb 7f 07 00 00    	cmp    $0x77f,%ebx
  1004cb:	7f 5b                	jg     100528 <consputc+0xd8>
  1004cd:	89 d8                	mov    %ebx,%eax
  1004cf:	8d 8c 1b 00 80 0b 00 	lea    0xb8000(%ebx,%ebx,1),%ecx
  1004d6:	89 dd                	mov    %ebx,%ebp
  1004d8:	c1 e8 08             	shr    $0x8,%eax
  1004db:	89 c7                	mov    %eax,%edi
}

static inline void
outb(ushort port, uchar data)
{
  asm volatile("out %0,%1" : : "a" (data), "d" (port));
  1004dd:	be d4 03 00 00       	mov    $0x3d4,%esi
  1004e2:	b8 0e 00 00 00       	mov    $0xe,%eax
  1004e7:	89 f2                	mov    %esi,%edx
  1004e9:	ee                   	out    %al,(%dx)
  1004ea:	bb d5 03 00 00       	mov    $0x3d5,%ebx
  1004ef:	89 f8                	mov    %edi,%eax
  1004f1:	89 da                	mov    %ebx,%edx
  1004f3:	ee                   	out    %al,(%dx)
  1004f4:	b8 0f 00 00 00       	mov    $0xf,%eax
  1004f9:	89 f2                	mov    %esi,%edx
  1004fb:	ee                   	out    %al,(%dx)
  1004fc:	89 e8                	mov    %ebp,%eax
  1004fe:	89 da                	mov    %ebx,%edx
  100500:	ee                   	out    %al,(%dx)
  
  outb(CRTPORT, 14);
  outb(CRTPORT+1, pos>>8);
  outb(CRTPORT, 15);
  outb(CRTPORT+1, pos);
  crt[pos] = ' ' | 0x0700;
  100501:	b8 20 07 00 00       	mov    $0x720,%eax
  100506:	66 89 01             	mov    %ax,(%ecx)
      ;
  }

  uartputc(c);
  cgaputc(c);
}
  100509:	83 c4 0c             	add    $0xc,%esp
  10050c:	5b                   	pop    %ebx
  10050d:	5e                   	pop    %esi
  10050e:	5f                   	pop    %edi
  10050f:	5d                   	pop    %ebp
  100510:	c3                   	ret    
  pos = inb(CRTPORT+1) << 8;
  outb(CRTPORT, 15);
  pos |= inb(CRTPORT+1);

  if(c == '\n')
    pos += 80 - pos%80;
  100511:	ba 67 66 66 66       	mov    $0x66666667,%edx
  100516:	f7 ea                	imul   %edx
  100518:	89 d0                	mov    %edx,%eax
  10051a:	c1 e8 05             	shr    $0x5,%eax
  10051d:	8d 04 80             	lea    (%eax,%eax,4),%eax
  100520:	c1 e0 04             	shl    $0x4,%eax
  100523:	8d 58 50             	lea    0x50(%eax),%ebx
  100526:	eb 9d                	jmp    1004c5 <consputc+0x75>
      crt[--pos] = ' ' | 0x0700;
  } else
    crt[pos++] = (c&0xff) | 0x0700;  // black on white
  
  if((pos/80) >= 24){  // Scroll up.
    memmove(crt, crt+80, sizeof(crt[0])*23*80);
  100528:	83 ec 04             	sub    $0x4,%esp
    pos -= 80;
  10052b:	83 eb 50             	sub    $0x50,%ebx
      crt[--pos] = ' ' | 0x0700;
  } else
    crt[pos++] = (c&0xff) | 0x0700;  // black on white
  
  if((pos/80) >= 24){  // Scroll up.
    memmove(crt, crt+80, sizeof(crt[0])*23*80);
  10052e:	68 60 0e 00 00       	push   $0xe60
  100533:	68 a0 80 0b 00       	push   $0xb80a0
    pos -= 80;
    memset(crt+pos, 0, sizeof(crt[0])*(24*80 - pos));
  100538:	8d b4 1b 00 80 0b 00 	lea    0xb8000(%ebx,%ebx,1),%esi
      crt[--pos] = ' ' | 0x0700;
  } else
    crt[pos++] = (c&0xff) | 0x0700;  // black on white
  
  if((pos/80) >= 24){  // Scroll up.
    memmove(crt, crt+80, sizeof(crt[0])*23*80);
  10053f:	68 00 80 0b 00       	push   $0xb8000
  100544:	89 dd                	mov    %ebx,%ebp
  100546:	e8 a5 3a 00 00       	call   103ff0 <memmove>
    pos -= 80;
    memset(crt+pos, 0, sizeof(crt[0])*(24*80 - pos));
  10054b:	b8 80 07 00 00       	mov    $0x780,%eax
  100550:	83 c4 0c             	add    $0xc,%esp
  100553:	29 d8                	sub    %ebx,%eax
  100555:	01 c0                	add    %eax,%eax
  100557:	50                   	push   %eax
  100558:	6a 00                	push   $0x0
  10055a:	56                   	push   %esi
  10055b:	e8 10 3a 00 00       	call   103f70 <memset>
  100560:	89 d8                	mov    %ebx,%eax
  100562:	83 c4 10             	add    $0x10,%esp
  100565:	89 f1                	mov    %esi,%ecx
  100567:	c1 e8 08             	shr    $0x8,%eax
  10056a:	89 c7                	mov    %eax,%edi
  10056c:	e9 6c ff ff ff       	jmp    1004dd <consputc+0x8d>
  pos |= inb(CRTPORT+1);

  if(c == '\n')
    pos += 80 - pos%80;
  else if(c == BACKSPACE){
    if(pos > 0)
  100571:	85 c0                	test   %eax,%eax
  100573:	74 15                	je     10058a <consputc+0x13a>
      crt[--pos] = ' ' | 0x0700;
  100575:	8d 58 ff             	lea    -0x1(%eax),%ebx
  100578:	ba 20 07 00 00       	mov    $0x720,%edx
  10057d:	66 89 94 1b 00 80 0b 	mov    %dx,0xb8000(%ebx,%ebx,1)
  100584:	00 
  100585:	e9 3b ff ff ff       	jmp    1004c5 <consputc+0x75>
  pos |= inb(CRTPORT+1);

  if(c == '\n')
    pos += 80 - pos%80;
  else if(c == BACKSPACE){
    if(pos > 0)
  10058a:	b9 00 80 0b 00       	mov    $0xb8000,%ecx
  10058f:	31 ed                	xor    %ebp,%ebp
  100591:	31 ff                	xor    %edi,%edi
  100593:	e9 45 ff ff ff       	jmp    1004dd <consputc+0x8d>
  100598:	90                   	nop
  100599:	8d b4 26 00 00 00 00 	lea    0x0(%esi,%eiz,1),%esi

001005a0 <consolewrite>:
    release(&cons.lock);
}

int
consolewrite(struct inode *ip, char *buf, int n)
{
  1005a0:	55                   	push   %ebp
  1005a1:	57                   	push   %edi
  1005a2:	56                   	push   %esi
  1005a3:	53                   	push   %ebx
  1005a4:	83 ec 18             	sub    $0x18,%esp
  1005a7:	8b 6c 24 2c          	mov    0x2c(%esp),%ebp
  1005ab:	8b 7c 24 34          	mov    0x34(%esp),%edi
  int i;

  iunlock(ip);
  1005af:	55                   	push   %ebp
  1005b0:	e8 5b 10 00 00       	call   101610 <iunlock>
  acquire(&cons.lock);
  1005b5:	c7 04 24 e0 97 10 00 	movl   $0x1097e0,(%esp)
  1005bc:	e8 7f 37 00 00       	call   103d40 <acquire>
  for(i = 0; i < n; i++)
  1005c1:	83 c4 10             	add    $0x10,%esp
  1005c4:	8b 5c 24 24          	mov    0x24(%esp),%ebx
  1005c8:	85 ff                	test   %edi,%edi
  1005ca:	8d 34 3b             	lea    (%ebx,%edi,1),%esi
  1005cd:	7e 17                	jle    1005e6 <consolewrite+0x46>
  1005cf:	90                   	nop
    consputc(buf[i] & 0xff);
  1005d0:	0f b6 03             	movzbl (%ebx),%eax
  1005d3:	83 ec 0c             	sub    $0xc,%esp
  1005d6:	83 c3 01             	add    $0x1,%ebx
  1005d9:	50                   	push   %eax
  1005da:	e8 71 fe ff ff       	call   100450 <consputc>
{
  int i;

  iunlock(ip);
  acquire(&cons.lock);
  for(i = 0; i < n; i++)
  1005df:	83 c4 10             	add    $0x10,%esp
  1005e2:	39 f3                	cmp    %esi,%ebx
  1005e4:	75 ea                	jne    1005d0 <consolewrite+0x30>
    consputc(buf[i] & 0xff);
  release(&cons.lock);
  1005e6:	83 ec 0c             	sub    $0xc,%esp
  1005e9:	68 e0 97 10 00       	push   $0x1097e0
  1005ee:	e8 2d 39 00 00       	call   103f20 <release>
  ilock(ip);
  1005f3:	89 2c 24             	mov    %ebp,(%esp)
  1005f6:	e8 05 0f 00 00       	call   101500 <ilock>

  return n;
}
  1005fb:	83 c4 1c             	add    $0x1c,%esp
  1005fe:	89 f8                	mov    %edi,%eax
  100600:	5b                   	pop    %ebx
  100601:	5e                   	pop    %esi
  100602:	5f                   	pop    %edi
  100603:	5d                   	pop    %ebp
  100604:	c3                   	ret    
  100605:	8d 74 26 00          	lea    0x0(%esi,%eiz,1),%esi
  100609:	8d bc 27 00 00 00 00 	lea    0x0(%edi,%eiz,1),%edi

00100610 <printint>:
  cgaputc(c);
}

void
printint(int xx, int base, int sgn)
{
  100610:	55                   	push   %ebp
  100611:	57                   	push   %edi
  100612:	56                   	push   %esi
  100613:	53                   	push   %ebx
  100614:	83 ec 1c             	sub    $0x1c,%esp
  static char digits[] = "0123456789abcdef";
  char buf[16];
  int i = 0, neg = 0;
  uint x;

  if(sgn && xx < 0){
  100617:	8b 54 24 38          	mov    0x38(%esp),%edx
  cgaputc(c);
}

void
printint(int xx, int base, int sgn)
{
  10061b:	8b 44 24 30          	mov    0x30(%esp),%eax
  10061f:	8b 74 24 34          	mov    0x34(%esp),%esi
  static char digits[] = "0123456789abcdef";
  char buf[16];
  int i = 0, neg = 0;
  uint x;

  if(sgn && xx < 0){
  100623:	85 d2                	test   %edx,%edx
  100625:	74 69                	je     100690 <printint+0x80>
  100627:	89 c2                	mov    %eax,%edx
  100629:	c1 ea 1f             	shr    $0x1f,%edx
  10062c:	84 d2                	test   %dl,%dl
  10062e:	74 60                	je     100690 <printint+0x80>
    neg = 1;
    x = 0 - xx;
  100630:	f7 d8                	neg    %eax
  char buf[16];
  int i = 0, neg = 0;
  uint x;

  if(sgn && xx < 0){
    neg = 1;
  100632:	bd 01 00 00 00       	mov    $0x1,%ebp
void
printint(int xx, int base, int sgn)
{
  static char digits[] = "0123456789abcdef";
  char buf[16];
  int i = 0, neg = 0;
  100637:	31 ff                	xor    %edi,%edi
  100639:	8d 5c 24 ff          	lea    -0x1(%esp),%ebx
  10063d:	eb 03                	jmp    100642 <printint+0x32>
  10063f:	90                   	nop
  } else {
    x = xx;
  }

  do{
    buf[i++] = digits[x % base];
  100640:	89 cf                	mov    %ecx,%edi
  100642:	31 d2                	xor    %edx,%edx
  100644:	8d 4f 01             	lea    0x1(%edi),%ecx
  100647:	f7 f6                	div    %esi
  100649:	0f b6 92 f0 5f 10 00 	movzbl 0x105ff0(%edx),%edx
  }while((x /= base) != 0);
  100650:	85 c0                	test   %eax,%eax
  } else {
    x = xx;
  }

  do{
    buf[i++] = digits[x % base];
  100652:	88 14 0b             	mov    %dl,(%ebx,%ecx,1)
  }while((x /= base) != 0);
  100655:	75 e9                	jne    100640 <printint+0x30>
  if(neg)
  100657:	85 ed                	test   %ebp,%ebp
  100659:	74 07                	je     100662 <printint+0x52>
    buf[i++] = '-';
  10065b:	c6 04 0c 2d          	movb   $0x2d,(%esp,%ecx,1)
  10065f:	8d 4f 02             	lea    0x2(%edi),%ecx
  100662:	8d 74 0c ff          	lea    -0x1(%esp,%ecx,1),%esi
  100666:	8d 76 00             	lea    0x0(%esi),%esi
  100669:	8d bc 27 00 00 00 00 	lea    0x0(%edi,%eiz,1),%edi

  while(--i >= 0)
    consputc(buf[i]);
  100670:	0f be 06             	movsbl (%esi),%eax
  100673:	83 ec 0c             	sub    $0xc,%esp
  100676:	83 ee 01             	sub    $0x1,%esi
  100679:	50                   	push   %eax
  10067a:	e8 d1 fd ff ff       	call   100450 <consputc>
    buf[i++] = digits[x % base];
  }while((x /= base) != 0);
  if(neg)
    buf[i++] = '-';

  while(--i >= 0)
  10067f:	83 c4 10             	add    $0x10,%esp
  100682:	39 de                	cmp    %ebx,%esi
  100684:	75 ea                	jne    100670 <printint+0x60>
    consputc(buf[i]);
}
  100686:	83 c4 1c             	add    $0x1c,%esp
  100689:	5b                   	pop    %ebx
  10068a:	5e                   	pop    %esi
  10068b:	5f                   	pop    %edi
  10068c:	5d                   	pop    %ebp
  10068d:	c3                   	ret    
  10068e:	66 90                	xchg   %ax,%ax
void
printint(int xx, int base, int sgn)
{
  static char digits[] = "0123456789abcdef";
  char buf[16];
  int i = 0, neg = 0;
  100690:	31 ed                	xor    %ebp,%ebp
  100692:	eb a3                	jmp    100637 <printint+0x27>
  100694:	8d b6 00 00 00 00    	lea    0x0(%esi),%esi
  10069a:	8d bf 00 00 00 00    	lea    0x0(%edi),%edi

001006a0 <cprintf>:
}

// Print to the console. only understands %d, %x, %p, %s.
void
cprintf(char *fmt, ...)
{
  1006a0:	55                   	push   %ebp
  1006a1:	57                   	push   %edi
  1006a2:	56                   	push   %esi
  1006a3:	53                   	push   %ebx
  1006a4:	83 ec 1c             	sub    $0x1c,%esp
  int i, c, state, locking;
  uint *argp;
  char *s;

  locking = cons.locking;
  1006a7:	a1 14 98 10 00       	mov    0x109814,%eax
  if(locking)
  1006ac:	85 c0                	test   %eax,%eax
{
  int i, c, state, locking;
  uint *argp;
  char *s;

  locking = cons.locking;
  1006ae:	89 44 24 08          	mov    %eax,0x8(%esp)
  if(locking)
  1006b2:	0f 85 68 01 00 00    	jne    100820 <cprintf+0x180>
    acquire(&cons.lock);

  argp = (uint*)(void*)&fmt + 1;
  state = 0;
  for(i = 0; fmt[i]; i++){
  1006b8:	8b 74 24 30          	mov    0x30(%esp),%esi
  1006bc:	0f b6 06             	movzbl (%esi),%eax
  1006bf:	84 c0                	test   %al,%al
  1006c1:	74 7e                	je     100741 <cprintf+0xa1>
    c = fmt[i] & 0xff;
  1006c3:	8d 6c 24 34          	lea    0x34(%esp),%ebp
  1006c7:	31 db                	xor    %ebx,%ebx
        printint(*argp++, 16, 0);
        break;
      case 's':
        s = (char*)*argp++;
        if(s == 0)
          s = "(null)";
  1006c9:	bf c6 5f 10 00       	mov    $0x105fc6,%edi
  state = 0;
  for(i = 0; fmt[i]; i++){
    c = fmt[i] & 0xff;
    switch(state){
    case 0:
      if(c == '%')
  1006ce:	83 f8 25             	cmp    $0x25,%eax
  1006d1:	75 4f                	jne    100722 <cprintf+0x82>
  if(locking)
    acquire(&cons.lock);

  argp = (uint*)(void*)&fmt + 1;
  state = 0;
  for(i = 0; fmt[i]; i++){
  1006d3:	0f b6 44 1e 01       	movzbl 0x1(%esi,%ebx,1),%eax
  1006d8:	84 c0                	test   %al,%al
  1006da:	74 5d                	je     100739 <cprintf+0x99>
      else
        consputc(c);
      break;
    
    case '%':
      switch(c){
  1006dc:	83 f8 70             	cmp    $0x70,%eax
  1006df:	0f 84 cb 00 00 00    	je     1007b0 <cprintf+0x110>
  1006e5:	7f 69                	jg     100750 <cprintf+0xb0>
  1006e7:	83 f8 25             	cmp    $0x25,%eax
  1006ea:	0f 84 d8 00 00 00    	je     1007c8 <cprintf+0x128>
  1006f0:	83 f8 64             	cmp    $0x64,%eax
  1006f3:	75 65                	jne    10075a <cprintf+0xba>
      case 'd':
        printint(*argp++, 10, 1);
  1006f5:	8d 45 04             	lea    0x4(%ebp),%eax
  1006f8:	83 ec 04             	sub    $0x4,%esp
  1006fb:	89 44 24 10          	mov    %eax,0x10(%esp)
  1006ff:	6a 01                	push   $0x1
  100701:	6a 0a                	push   $0xa
        break;
      case 'x':
      case 'p':
        printint(*argp++, 16, 0);
  100703:	ff 75 00             	pushl  0x0(%ebp)
  if(locking)
    acquire(&cons.lock);

  argp = (uint*)(void*)&fmt + 1;
  state = 0;
  for(i = 0; fmt[i]; i++){
  100706:	83 c3 02             	add    $0x2,%ebx
      case 'd':
        printint(*argp++, 10, 1);
        break;
      case 'x':
      case 'p':
        printint(*argp++, 16, 0);
  100709:	e8 02 ff ff ff       	call   100610 <printint>
  if(locking)
    acquire(&cons.lock);

  argp = (uint*)(void*)&fmt + 1;
  state = 0;
  for(i = 0; fmt[i]; i++){
  10070e:	0f b6 04 1e          	movzbl (%esi,%ebx,1),%eax
  100712:	83 c4 10             	add    $0x10,%esp
  100715:	84 c0                	test   %al,%al
  100717:	74 20                	je     100739 <cprintf+0x99>
    c = fmt[i] & 0xff;
    switch(state){
    case 0:
      if(c == '%')
  100719:	83 f8 25             	cmp    $0x25,%eax
      case 'x':
      case 'p':
        printint(*argp++, 16, 0);
        break;
      case 's':
        s = (char*)*argp++;
  10071c:	8b 6c 24 0c          	mov    0xc(%esp),%ebp
  state = 0;
  for(i = 0; fmt[i]; i++){
    c = fmt[i] & 0xff;
    switch(state){
    case 0:
      if(c == '%')
  100720:	74 b1                	je     1006d3 <cprintf+0x33>
        state = '%';
      else
        consputc(c);
  100722:	83 ec 0c             	sub    $0xc,%esp
  if(locking)
    acquire(&cons.lock);

  argp = (uint*)(void*)&fmt + 1;
  state = 0;
  for(i = 0; fmt[i]; i++){
  100725:	83 c3 01             	add    $0x1,%ebx
    switch(state){
    case 0:
      if(c == '%')
        state = '%';
      else
        consputc(c);
  100728:	50                   	push   %eax
  100729:	e8 22 fd ff ff       	call   100450 <consputc>
  if(locking)
    acquire(&cons.lock);

  argp = (uint*)(void*)&fmt + 1;
  state = 0;
  for(i = 0; fmt[i]; i++){
  10072e:	0f b6 04 1e          	movzbl (%esi,%ebx,1),%eax
  100732:	83 c4 10             	add    $0x10,%esp
  100735:	84 c0                	test   %al,%al
  100737:	75 95                	jne    1006ce <cprintf+0x2e>
      state = 0;
      break;
    }
  }

  if(locking)
  100739:	8b 44 24 08          	mov    0x8(%esp),%eax
  10073d:	85 c0                	test   %eax,%eax
  10073f:	75 4d                	jne    10078e <cprintf+0xee>
    release(&cons.lock);
}
  100741:	83 c4 1c             	add    $0x1c,%esp
  100744:	5b                   	pop    %ebx
  100745:	5e                   	pop    %esi
  100746:	5f                   	pop    %edi
  100747:	5d                   	pop    %ebp
  100748:	c3                   	ret    
  100749:	8d b4 26 00 00 00 00 	lea    0x0(%esi,%eiz,1),%esi
      else
        consputc(c);
      break;
    
    case '%':
      switch(c){
  100750:	83 f8 73             	cmp    $0x73,%eax
  100753:	74 7b                	je     1007d0 <cprintf+0x130>
  100755:	83 f8 78             	cmp    $0x78,%eax
  100758:	74 56                	je     1007b0 <cprintf+0x110>
  10075a:	89 44 24 0c          	mov    %eax,0xc(%esp)
      case '%':
        consputc('%');
        break;
      default:
        // Print unknown % sequence to draw attention.
        consputc('%');
  10075e:	83 ec 0c             	sub    $0xc,%esp
  100761:	6a 25                	push   $0x25
  100763:	e8 e8 fc ff ff       	call   100450 <consputc>
        consputc(c);
  100768:	8b 44 24 1c          	mov    0x1c(%esp),%eax
  10076c:	89 04 24             	mov    %eax,(%esp)
  if(locking)
    acquire(&cons.lock);

  argp = (uint*)(void*)&fmt + 1;
  state = 0;
  for(i = 0; fmt[i]; i++){
  10076f:	83 c3 02             	add    $0x2,%ebx
        consputc('%');
        break;
      default:
        // Print unknown % sequence to draw attention.
        consputc('%');
        consputc(c);
  100772:	e8 d9 fc ff ff       	call   100450 <consputc>
  if(locking)
    acquire(&cons.lock);

  argp = (uint*)(void*)&fmt + 1;
  state = 0;
  for(i = 0; fmt[i]; i++){
  100777:	0f b6 04 1e          	movzbl (%esi,%ebx,1),%eax
  10077b:	83 c4 10             	add    $0x10,%esp
  10077e:	84 c0                	test   %al,%al
  100780:	0f 85 48 ff ff ff    	jne    1006ce <cprintf+0x2e>
      state = 0;
      break;
    }
  }

  if(locking)
  100786:	8b 44 24 08          	mov    0x8(%esp),%eax
  10078a:	85 c0                	test   %eax,%eax
  10078c:	74 b3                	je     100741 <cprintf+0xa1>
    release(&cons.lock);
  10078e:	83 ec 0c             	sub    $0xc,%esp
  100791:	68 e0 97 10 00       	push   $0x1097e0
  100796:	e8 85 37 00 00       	call   103f20 <release>
  10079b:	83 c4 10             	add    $0x10,%esp
}
  10079e:	83 c4 1c             	add    $0x1c,%esp
  1007a1:	5b                   	pop    %ebx
  1007a2:	5e                   	pop    %esi
  1007a3:	5f                   	pop    %edi
  1007a4:	5d                   	pop    %ebp
  1007a5:	c3                   	ret    
  1007a6:	8d 76 00             	lea    0x0(%esi),%esi
  1007a9:	8d bc 27 00 00 00 00 	lea    0x0(%edi,%eiz,1),%edi
      case 'd':
        printint(*argp++, 10, 1);
        break;
      case 'x':
      case 'p':
        printint(*argp++, 16, 0);
  1007b0:	8d 45 04             	lea    0x4(%ebp),%eax
  1007b3:	83 ec 04             	sub    $0x4,%esp
  1007b6:	89 44 24 10          	mov    %eax,0x10(%esp)
  1007ba:	6a 00                	push   $0x0
  1007bc:	6a 10                	push   $0x10
  1007be:	e9 40 ff ff ff       	jmp    100703 <cprintf+0x63>
  1007c3:	90                   	nop
  1007c4:	8d 74 26 00          	lea    0x0(%esi,%eiz,1),%esi
          s = "(null)";
        for(; *s; s++)
          consputc(*s);
        break;
      case '%':
        consputc('%');
  1007c8:	83 ec 0c             	sub    $0xc,%esp
  1007cb:	6a 25                	push   $0x25
  1007cd:	eb a0                	jmp    10076f <cprintf+0xcf>
  1007cf:	90                   	nop
      case 'x':
      case 'p':
        printint(*argp++, 16, 0);
        break;
      case 's':
        s = (char*)*argp++;
  1007d0:	8d 45 04             	lea    0x4(%ebp),%eax
  1007d3:	8b 6d 00             	mov    0x0(%ebp),%ebp
  1007d6:	89 44 24 0c          	mov    %eax,0xc(%esp)
        if(s == 0)
          s = "(null)";
  1007da:	85 ed                	test   %ebp,%ebp
  1007dc:	0f 44 ef             	cmove  %edi,%ebp
        for(; *s; s++)
  1007df:	0f be 45 00          	movsbl 0x0(%ebp),%eax
  1007e3:	84 c0                	test   %al,%al
  1007e5:	74 20                	je     100807 <cprintf+0x167>
  1007e7:	89 f6                	mov    %esi,%esi
  1007e9:	8d bc 27 00 00 00 00 	lea    0x0(%edi,%eiz,1),%edi
          consputc(*s);
  1007f0:	83 ec 0c             	sub    $0xc,%esp
        break;
      case 's':
        s = (char*)*argp++;
        if(s == 0)
          s = "(null)";
        for(; *s; s++)
  1007f3:	83 c5 01             	add    $0x1,%ebp
          consputc(*s);
  1007f6:	50                   	push   %eax
  1007f7:	e8 54 fc ff ff       	call   100450 <consputc>
        break;
      case 's':
        s = (char*)*argp++;
        if(s == 0)
          s = "(null)";
        for(; *s; s++)
  1007fc:	0f be 45 00          	movsbl 0x0(%ebp),%eax
  100800:	83 c4 10             	add    $0x10,%esp
  100803:	84 c0                	test   %al,%al
  100805:	75 e9                	jne    1007f0 <cprintf+0x150>
  if(locking)
    acquire(&cons.lock);

  argp = (uint*)(void*)&fmt + 1;
  state = 0;
  for(i = 0; fmt[i]; i++){
  100807:	83 c3 02             	add    $0x2,%ebx
  10080a:	0f b6 04 1e          	movzbl (%esi,%ebx,1),%eax
  10080e:	84 c0                	test   %al,%al
  100810:	0f 85 03 ff ff ff    	jne    100719 <cprintf+0x79>
  100816:	e9 1e ff ff ff       	jmp    100739 <cprintf+0x99>
  10081b:	90                   	nop
  10081c:	8d 74 26 00          	lea    0x0(%esi,%eiz,1),%esi
  uint *argp;
  char *s;

  locking = cons.locking;
  if(locking)
    acquire(&cons.lock);
  100820:	83 ec 0c             	sub    $0xc,%esp
  100823:	68 e0 97 10 00       	push   $0x1097e0
  100828:	e8 13 35 00 00       	call   103d40 <acquire>

  argp = (uint*)(void*)&fmt + 1;
  state = 0;
  for(i = 0; fmt[i]; i++){
  10082d:	8b 74 24 40          	mov    0x40(%esp),%esi
  100831:	83 c4 10             	add    $0x10,%esp
  100834:	0f b6 06             	movzbl (%esi),%eax
  100837:	84 c0                	test   %al,%al
  100839:	0f 85 84 fe ff ff    	jne    1006c3 <cprintf+0x23>
  10083f:	e9 4a ff ff ff       	jmp    10078e <cprintf+0xee>
  100844:	8d b6 00 00 00 00    	lea    0x0(%esi),%esi
  10084a:	8d bf 00 00 00 00    	lea    0x0(%edi),%edi

00100850 <consoleintr>:

#define C(x)  ((x)-'@')  // Control-x

void
consoleintr(int (*getc)(void))
{
  100850:	53                   	push   %ebx
  100851:	83 ec 24             	sub    $0x24,%esp
  100854:	8b 5c 24 2c          	mov    0x2c(%esp),%ebx
  int c;

  acquire(&input.lock);
  100858:	68 e0 af 10 00       	push   $0x10afe0
  10085d:	e8 de 34 00 00       	call   103d40 <acquire>
  while((c = getc()) >= 0){
  100862:	83 c4 10             	add    $0x10,%esp
  100865:	8d 76 00             	lea    0x0(%esi),%esi
  100868:	ff d3                	call   *%ebx
  10086a:	85 c0                	test   %eax,%eax
  10086c:	0f 88 9d 00 00 00    	js     10090f <consoleintr+0xbf>
    switch(c){
  100872:	83 f8 10             	cmp    $0x10,%eax
  100875:	0f 84 a5 00 00 00    	je     100920 <consoleintr+0xd0>
  10087b:	83 f8 15             	cmp    $0x15,%eax
  10087e:	0f 84 dc 00 00 00    	je     100960 <consoleintr+0x110>
  100884:	83 f8 08             	cmp    $0x8,%eax
  100887:	0f 84 a3 00 00 00    	je     100930 <consoleintr+0xe0>
        input.e--;
        consputc(BACKSPACE);
      }
      break;
    default:
      if(c != 0 && input.e-input.r < INPUT_BUF){
  10088d:	85 c0                	test   %eax,%eax
  10088f:	74 d7                	je     100868 <consoleintr+0x18>
  100891:	8b 15 9c b0 10 00    	mov    0x10b09c,%edx
  100897:	89 d1                	mov    %edx,%ecx
  100899:	2b 0d 94 b0 10 00    	sub    0x10b094,%ecx
  10089f:	83 f9 7f             	cmp    $0x7f,%ecx
  1008a2:	77 c4                	ja     100868 <consoleintr+0x18>
        input.buf[input.e++ % INPUT_BUF] = c;
        consputc(c);
  1008a4:	83 ec 0c             	sub    $0xc,%esp
        consputc(BACKSPACE);
      }
      break;
    default:
      if(c != 0 && input.e-input.r < INPUT_BUF){
        input.buf[input.e++ % INPUT_BUF] = c;
  1008a7:	8d 4a 01             	lea    0x1(%edx),%ecx
  1008aa:	83 e2 7f             	and    $0x7f,%edx
        consputc(c);
  1008ad:	50                   	push   %eax
        consputc(BACKSPACE);
      }
      break;
    default:
      if(c != 0 && input.e-input.r < INPUT_BUF){
        input.buf[input.e++ % INPUT_BUF] = c;
  1008ae:	88 82 14 b0 10 00    	mov    %al,0x10b014(%edx)
  1008b4:	89 0d 9c b0 10 00    	mov    %ecx,0x10b09c
        consputc(c);
  1008ba:	89 44 24 1c          	mov    %eax,0x1c(%esp)
  1008be:	e8 8d fb ff ff       	call   100450 <consputc>
        if(c == '\n' || c == C('D') || input.e == input.r+INPUT_BUF){
  1008c3:	83 c4 10             	add    $0x10,%esp
  1008c6:	8b 44 24 0c          	mov    0xc(%esp),%eax
  1008ca:	83 f8 0a             	cmp    $0xa,%eax
  1008cd:	0f 84 e1 00 00 00    	je     1009b4 <consoleintr+0x164>
  1008d3:	83 f8 04             	cmp    $0x4,%eax
  1008d6:	0f 84 d8 00 00 00    	je     1009b4 <consoleintr+0x164>
  1008dc:	a1 94 b0 10 00       	mov    0x10b094,%eax
  1008e1:	83 e8 80             	sub    $0xffffff80,%eax
  1008e4:	39 05 9c b0 10 00    	cmp    %eax,0x10b09c
  1008ea:	0f 85 78 ff ff ff    	jne    100868 <consoleintr+0x18>
          input.w = input.e;
          wakeup(&input.r);
  1008f0:	83 ec 0c             	sub    $0xc,%esp
    default:
      if(c != 0 && input.e-input.r < INPUT_BUF){
        input.buf[input.e++ % INPUT_BUF] = c;
        consputc(c);
        if(c == '\n' || c == C('D') || input.e == input.r+INPUT_BUF){
          input.w = input.e;
  1008f3:	a3 98 b0 10 00       	mov    %eax,0x10b098
          wakeup(&input.r);
  1008f8:	68 94 b0 10 00       	push   $0x10b094
  1008fd:	e8 4e 30 00 00       	call   103950 <wakeup>
  100902:	83 c4 10             	add    $0x10,%esp
consoleintr(int (*getc)(void))
{
  int c;

  acquire(&input.lock);
  while((c = getc()) >= 0){
  100905:	ff d3                	call   *%ebx
  100907:	85 c0                	test   %eax,%eax
  100909:	0f 89 63 ff ff ff    	jns    100872 <consoleintr+0x22>
        }
      }
      break;
    }
  }
  release(&input.lock);
  10090f:	c7 44 24 20 e0 af 10 	movl   $0x10afe0,0x20(%esp)
  100916:	00 
}
  100917:	83 c4 18             	add    $0x18,%esp
  10091a:	5b                   	pop    %ebx
        }
      }
      break;
    }
  }
  release(&input.lock);
  10091b:	e9 00 36 00 00       	jmp    103f20 <release>

  acquire(&input.lock);
  while((c = getc()) >= 0){
    switch(c){
    case C('P'):  // Process listing.
      procdump();
  100920:	e8 2b 33 00 00       	call   103c50 <procdump>
      break;
  100925:	e9 3e ff ff ff       	jmp    100868 <consoleintr+0x18>
  10092a:	8d b6 00 00 00 00    	lea    0x0(%esi),%esi
        input.e--;
        consputc(BACKSPACE);
      }
      break;
    case C('H'):  // Backspace
      if(input.e != input.w){
  100930:	a1 9c b0 10 00       	mov    0x10b09c,%eax
  100935:	3b 05 98 b0 10 00    	cmp    0x10b098,%eax
  10093b:	0f 84 27 ff ff ff    	je     100868 <consoleintr+0x18>
        input.e--;
        consputc(BACKSPACE);
  100941:	83 ec 0c             	sub    $0xc,%esp
        consputc(BACKSPACE);
      }
      break;
    case C('H'):  // Backspace
      if(input.e != input.w){
        input.e--;
  100944:	83 e8 01             	sub    $0x1,%eax
        consputc(BACKSPACE);
  100947:	68 00 01 00 00       	push   $0x100
        consputc(BACKSPACE);
      }
      break;
    case C('H'):  // Backspace
      if(input.e != input.w){
        input.e--;
  10094c:	a3 9c b0 10 00       	mov    %eax,0x10b09c
        consputc(BACKSPACE);
  100951:	e8 fa fa ff ff       	call   100450 <consputc>
  100956:	83 c4 10             	add    $0x10,%esp
  100959:	e9 0a ff ff ff       	jmp    100868 <consoleintr+0x18>
  10095e:	66 90                	xchg   %ax,%ax
    switch(c){
    case C('P'):  // Process listing.
      procdump();
      break;
    case C('U'):  // Kill line.
      while(input.e != input.w &&
  100960:	a1 9c b0 10 00       	mov    0x10b09c,%eax
  100965:	39 05 98 b0 10 00    	cmp    %eax,0x10b098
  10096b:	75 31                	jne    10099e <consoleintr+0x14e>
  10096d:	e9 f6 fe ff ff       	jmp    100868 <consoleintr+0x18>
  100972:	8d b6 00 00 00 00    	lea    0x0(%esi),%esi
            input.buf[(input.e-1) % INPUT_BUF] != '\n'){
        input.e--;
        consputc(BACKSPACE);
  100978:	83 ec 0c             	sub    $0xc,%esp
      procdump();
      break;
    case C('U'):  // Kill line.
      while(input.e != input.w &&
            input.buf[(input.e-1) % INPUT_BUF] != '\n'){
        input.e--;
  10097b:	a3 9c b0 10 00       	mov    %eax,0x10b09c
        consputc(BACKSPACE);
  100980:	68 00 01 00 00       	push   $0x100
  100985:	e8 c6 fa ff ff       	call   100450 <consputc>
    switch(c){
    case C('P'):  // Process listing.
      procdump();
      break;
    case C('U'):  // Kill line.
      while(input.e != input.w &&
  10098a:	a1 9c b0 10 00       	mov    0x10b09c,%eax
  10098f:	83 c4 10             	add    $0x10,%esp
  100992:	3b 05 98 b0 10 00    	cmp    0x10b098,%eax
  100998:	0f 84 ca fe ff ff    	je     100868 <consoleintr+0x18>
            input.buf[(input.e-1) % INPUT_BUF] != '\n'){
  10099e:	83 e8 01             	sub    $0x1,%eax
  1009a1:	89 c2                	mov    %eax,%edx
  1009a3:	83 e2 7f             	and    $0x7f,%edx
    switch(c){
    case C('P'):  // Process listing.
      procdump();
      break;
    case C('U'):  // Kill line.
      while(input.e != input.w &&
  1009a6:	80 ba 14 b0 10 00 0a 	cmpb   $0xa,0x10b014(%edx)
  1009ad:	75 c9                	jne    100978 <consoleintr+0x128>
  1009af:	e9 b4 fe ff ff       	jmp    100868 <consoleintr+0x18>
  1009b4:	a1 9c b0 10 00       	mov    0x10b09c,%eax
  1009b9:	e9 32 ff ff ff       	jmp    1008f0 <consoleintr+0xa0>
  1009be:	66 90                	xchg   %ax,%ax

001009c0 <consoleinit>:
  return target - n;
}

void
consoleinit(void)
{
  1009c0:	83 ec 14             	sub    $0x14,%esp
  initlock(&cons.lock, "console");
  1009c3:	68 cd 5f 10 00       	push   $0x105fcd
  1009c8:	68 e0 97 10 00       	push   $0x1097e0
  1009cd:	e8 4e 33 00 00       	call   103d20 <initlock>
  initlock(&input.lock, "input");
  1009d2:	58                   	pop    %eax
  1009d3:	5a                   	pop    %edx
  1009d4:	68 d5 5f 10 00       	push   $0x105fd5
  1009d9:	68 e0 af 10 00       	push   $0x10afe0
  1009de:	e8 3d 33 00 00       	call   103d20 <initlock>

  devsw[CONSOLE].write = consolewrite;
  devsw[CONSOLE].read = consoleread;
  cons.locking = 1;

  picenable(IRQ_KBD);
  1009e3:	c7 04 24 01 00 00 00 	movl   $0x1,(%esp)
consoleinit(void)
{
  initlock(&cons.lock, "console");
  initlock(&input.lock, "input");

  devsw[CONSOLE].write = consolewrite;
  1009ea:	c7 05 50 ba 10 00 a0 	movl   $0x1005a0,0x10ba50
  1009f1:	05 10 00 
  devsw[CONSOLE].read = consoleread;
  1009f4:	c7 05 4c ba 10 00 40 	movl   $0x100340,0x10ba4c
  1009fb:	03 10 00 
  cons.locking = 1;
  1009fe:	c7 05 14 98 10 00 01 	movl   $0x1,0x109814
  100a05:	00 00 00 

  picenable(IRQ_KBD);
  100a08:	e8 73 22 00 00       	call   102c80 <picenable>
  ioapicenable(IRQ_KBD, 0);
  100a0d:	59                   	pop    %ecx
  100a0e:	58                   	pop    %eax
  100a0f:	6a 00                	push   $0x0
  100a11:	6a 01                	push   $0x1
  100a13:	e8 f8 18 00 00       	call   102310 <ioapicenable>
}
  100a18:	83 c4 1c             	add    $0x1c,%esp
  100a1b:	c3                   	ret    
  100a1c:	8d 74 26 00          	lea    0x0(%esi,%eiz,1),%esi

00100a20 <panic>:

void
panic(char *s)
{
  100a20:	56                   	push   %esi
  100a21:	53                   	push   %ebx
  100a22:	83 ec 34             	sub    $0x34,%esp
}

static inline void
cli(void)
{
  asm volatile("cli");
  100a25:	fa                   	cli    
  int i;
  uint pcs[10];
  
  cli();
  cons.locking = 0;
  100a26:	c7 05 14 98 10 00 00 	movl   $0x0,0x109814
  100a2d:	00 00 00 
  cprintf("cpu%d: panic: ", cpu());
  100a30:	e8 0b 1d 00 00       	call   102740 <cpu>
  100a35:	83 ec 08             	sub    $0x8,%esp
  100a38:	50                   	push   %eax
  100a39:	68 db 5f 10 00       	push   $0x105fdb
  100a3e:	e8 5d fc ff ff       	call   1006a0 <cprintf>
  cprintf(s);
  100a43:	58                   	pop    %eax
  100a44:	ff 74 24 4c          	pushl  0x4c(%esp)
  100a48:	e8 53 fc ff ff       	call   1006a0 <cprintf>
  cprintf("\n");
  100a4d:	c7 04 24 43 64 10 00 	movl   $0x106443,(%esp)
  100a54:	e8 47 fc ff ff       	call   1006a0 <cprintf>
  getcallerpcs(&s, pcs);
  100a59:	5a                   	pop    %edx
  100a5a:	59                   	pop    %ecx
  100a5b:	8d 5c 24 10          	lea    0x10(%esp),%ebx
  100a5f:	53                   	push   %ebx
  100a60:	8d 44 24 4c          	lea    0x4c(%esp),%eax
  100a64:	50                   	push   %eax
  100a65:	e8 b6 33 00 00       	call   103e20 <getcallerpcs>
  100a6a:	8d 74 24 40          	lea    0x40(%esp),%esi
  100a6e:	83 c4 10             	add    $0x10,%esp
  100a71:	8d b4 26 00 00 00 00 	lea    0x0(%esi,%eiz,1),%esi
  for(i=0; i<10; i++)
    cprintf(" %p", pcs[i]);
  100a78:	83 ec 08             	sub    $0x8,%esp
  100a7b:	ff 33                	pushl  (%ebx)
  100a7d:	83 c3 04             	add    $0x4,%ebx
  100a80:	68 ea 5f 10 00       	push   $0x105fea
  100a85:	e8 16 fc ff ff       	call   1006a0 <cprintf>
  cons.locking = 0;
  cprintf("cpu%d: panic: ", cpu());
  cprintf(s);
  cprintf("\n");
  getcallerpcs(&s, pcs);
  for(i=0; i<10; i++)
  100a8a:	83 c4 10             	add    $0x10,%esp
  100a8d:	39 f3                	cmp    %esi,%ebx
  100a8f:	75 e7                	jne    100a78 <panic+0x58>
    cprintf(" %p", pcs[i]);
  panicked = 1; // freeze other CPU
  100a91:	c7 05 c0 97 10 00 01 	movl   $0x1,0x1097c0
  100a98:	00 00 00 
  100a9b:	eb fe                	jmp    100a9b <panic+0x7b>
  100a9d:	66 90                	xchg   %ax,%ax
  100a9f:	90                   	nop

00100aa0 <exec>:
#include "x86.h"
#include "elf.h"

int
exec(char *path, char **argv)
{
  100aa0:	55                   	push   %ebp
  100aa1:	57                   	push   %edi
  100aa2:	56                   	push   %esi
  100aa3:	53                   	push   %ebx
  100aa4:	81 ec 98 00 00 00    	sub    $0x98,%esp
  uint sz, sp, argp;
  struct elfhdr elf;
  struct inode *ip;
  struct proghdr ph;

  if((ip = namei(path)) == 0)
  100aaa:	ff b4 24 ac 00 00 00 	pushl  0xac(%esp)
  100ab1:	e8 6a 14 00 00       	call   101f20 <namei>
  100ab6:	83 c4 10             	add    $0x10,%esp
  100ab9:	85 c0                	test   %eax,%eax
  100abb:	0f 84 a2 03 00 00    	je     100e63 <exec+0x3c3>
    return -1;
  ilock(ip);
  100ac1:	83 ec 0c             	sub    $0xc,%esp
  100ac4:	89 c3                	mov    %eax,%ebx
  100ac6:	50                   	push   %eax
  100ac7:	e8 34 0a 00 00       	call   101500 <ilock>
  // Compute memory size of new process.
  mem = 0;
  sz = 0;

  // Program segments.
  if(readi(ip, (char*)&elf, 0, sizeof(elf)) < sizeof(elf))
  100acc:	6a 34                	push   $0x34
  100ace:	6a 00                	push   $0x0
  100ad0:	8d 44 24 64          	lea    0x64(%esp),%eax
  100ad4:	50                   	push   %eax
  100ad5:	53                   	push   %ebx
  100ad6:	e8 75 0e 00 00       	call   101950 <readi>
  100adb:	83 c4 20             	add    $0x20,%esp
  100ade:	83 f8 33             	cmp    $0x33,%eax
  100ae1:	0f 86 2c 03 00 00    	jbe    100e13 <exec+0x373>
    goto bad;
  if(elf.magic != ELF_MAGIC)
  100ae7:	81 7c 24 4c 7f 45 4c 	cmpl   $0x464c457f,0x4c(%esp)
  100aee:	46 
  100aef:	0f 85 1e 03 00 00    	jne    100e13 <exec+0x373>
    goto bad;
  for(i=0, off=elf.phoff; i<elf.phnum; i++, off+=sizeof(ph)){
  100af5:	66 83 7c 24 78 00    	cmpw   $0x0,0x78(%esp)
  100afb:	8b 6c 24 68          	mov    0x68(%esp),%ebp
  100aff:	0f 84 54 03 00 00    	je     100e59 <exec+0x3b9>
  100b05:	c7 44 24 08 00 00 00 	movl   $0x0,0x8(%esp)
  100b0c:	00 
  100b0d:	31 ff                	xor    %edi,%edi
  100b0f:	8d 74 24 2c          	lea    0x2c(%esp),%esi
  100b13:	eb 12                	jmp    100b27 <exec+0x87>
  100b15:	8d 76 00             	lea    0x0(%esi),%esi
  100b18:	0f b7 44 24 78       	movzwl 0x78(%esp),%eax
  100b1d:	83 c7 01             	add    $0x1,%edi
  100b20:	83 c5 20             	add    $0x20,%ebp
  100b23:	39 f8                	cmp    %edi,%eax
  100b25:	7e 3e                	jle    100b65 <exec+0xc5>
    if(readi(ip, (char*)&ph, off, sizeof(ph)) != sizeof(ph))
  100b27:	6a 20                	push   $0x20
  100b29:	55                   	push   %ebp
  100b2a:	56                   	push   %esi
  100b2b:	53                   	push   %ebx
  100b2c:	e8 1f 0e 00 00       	call   101950 <readi>
  100b31:	83 c4 10             	add    $0x10,%esp
  100b34:	83 f8 20             	cmp    $0x20,%eax
  100b37:	0f 85 d6 02 00 00    	jne    100e13 <exec+0x373>
      goto bad;
    if(ph.type != ELF_PROG_LOAD)
  100b3d:	83 7c 24 2c 01       	cmpl   $0x1,0x2c(%esp)
  100b42:	75 d4                	jne    100b18 <exec+0x78>
      continue;
    if(ph.memsz < ph.filesz)
  100b44:	8b 44 24 40          	mov    0x40(%esp),%eax
  100b48:	3b 44 24 3c          	cmp    0x3c(%esp),%eax
  100b4c:	0f 82 c1 02 00 00    	jb     100e13 <exec+0x373>
      goto bad;
    sz += ph.memsz;
  100b52:	01 44 24 08          	add    %eax,0x8(%esp)
  // Program segments.
  if(readi(ip, (char*)&elf, 0, sizeof(elf)) < sizeof(elf))
    goto bad;
  if(elf.magic != ELF_MAGIC)
    goto bad;
  for(i=0, off=elf.phoff; i<elf.phnum; i++, off+=sizeof(ph)){
  100b56:	0f b7 44 24 78       	movzwl 0x78(%esp),%eax
  100b5b:	83 c7 01             	add    $0x1,%edi
  100b5e:	83 c5 20             	add    $0x20,%ebp
  100b61:	39 f8                	cmp    %edi,%eax
  100b63:	7f c2                	jg     100b27 <exec+0x87>
  100b65:	8b 74 24 08          	mov    0x8(%esp),%esi
  100b69:	81 c6 ff 1f 00 00    	add    $0x1fff,%esi
    sz += ph.memsz;
  }
  
  // Arguments.
  arglen = 0;
  for(argc=0; argv[argc]; argc++)
  100b6f:	8b 84 24 a4 00 00 00 	mov    0xa4(%esp),%eax
  100b76:	8b 00                	mov    (%eax),%eax
  100b78:	85 c0                	test   %eax,%eax
  100b7a:	0f 84 af 02 00 00    	je     100e2f <exec+0x38f>
  100b80:	89 74 24 08          	mov    %esi,0x8(%esp)
  100b84:	31 ff                	xor    %edi,%edi
  100b86:	31 ed                	xor    %ebp,%ebp
  100b88:	8b b4 24 a4 00 00 00 	mov    0xa4(%esp),%esi
  100b8f:	eb 09                	jmp    100b9a <exec+0xfa>
  100b91:	8d b4 26 00 00 00 00 	lea    0x0(%esi,%eiz,1),%esi
  100b98:	89 d5                	mov    %edx,%ebp
    arglen += strlen(argv[argc]) + 1;
  100b9a:	83 ec 0c             	sub    $0xc,%esp
  100b9d:	50                   	push   %eax
  100b9e:	e8 bd 35 00 00       	call   104160 <strlen>
    sz += ph.memsz;
  }
  
  // Arguments.
  arglen = 0;
  for(argc=0; argv[argc]; argc++)
  100ba3:	8d 55 01             	lea    0x1(%ebp),%edx
    arglen += strlen(argv[argc]) + 1;
  100ba6:	8d 7c 38 01          	lea    0x1(%eax,%edi,1),%edi
    sz += ph.memsz;
  }
  
  // Arguments.
  arglen = 0;
  for(argc=0; argv[argc]; argc++)
  100baa:	83 c4 10             	add    $0x10,%esp
  100bad:	8b 04 96             	mov    (%esi,%edx,4),%eax
  100bb0:	85 c0                	test   %eax,%eax
  100bb2:	75 e4                	jne    100b98 <exec+0xf8>
  100bb4:	83 c7 03             	add    $0x3,%edi
  100bb7:	8d 0c ad 08 00 00 00 	lea    0x8(,%ebp,4),%ecx
  100bbe:	8b 74 24 08          	mov    0x8(%esp),%esi
  100bc2:	83 e7 fc             	and    $0xfffffffc,%edi
  100bc5:	89 54 24 10          	mov    %edx,0x10(%esp)
  100bc9:	89 54 24 14          	mov    %edx,0x14(%esp)
  100bcd:	89 f8                	mov    %edi,%eax
  100bcf:	89 7c 24 18          	mov    %edi,0x18(%esp)
  100bd3:	89 4c 24 1c          	mov    %ecx,0x1c(%esp)
  100bd7:	01 c8                	add    %ecx,%eax

  // Stack.
  sz += PAGE;
  
  // Allocate program memory.
  sz = (sz+PAGE-1) & ~(PAGE-1);
  100bd9:	01 c6                	add    %eax,%esi
  mem = kalloc(sz);
  100bdb:	83 ec 0c             	sub    $0xc,%esp

  // Stack.
  sz += PAGE;
  
  // Allocate program memory.
  sz = (sz+PAGE-1) & ~(PAGE-1);
  100bde:	81 e6 00 f0 ff ff    	and    $0xfffff000,%esi
  100be4:	89 74 24 18          	mov    %esi,0x18(%esp)
  mem = kalloc(sz);
  100be8:	56                   	push   %esi
  100be9:	e8 a2 18 00 00       	call   102490 <kalloc>
  100bee:	89 44 24 18          	mov    %eax,0x18(%esp)
  if(mem == 0)
  100bf2:	83 c4 10             	add    $0x10,%esp
  100bf5:	85 c0                	test   %eax,%eax
  100bf7:	0f 84 16 02 00 00    	je     100e13 <exec+0x373>
    goto bad;
  memset(mem, 0, sz);
  100bfd:	83 ec 04             	sub    $0x4,%esp
  100c00:	56                   	push   %esi
  100c01:	6a 00                	push   $0x0
  100c03:	50                   	push   %eax
  100c04:	e8 67 33 00 00       	call   103f70 <memset>

  // Load program into memory.
  for(i=0, off=elf.phoff; i<elf.phnum; i++, off+=sizeof(ph)){
  100c09:	8b 7c 24 78          	mov    0x78(%esp),%edi
  100c0d:	83 c4 10             	add    $0x10,%esp
  100c10:	66 83 7c 24 78 00    	cmpw   $0x0,0x78(%esp)
  100c16:	0f 84 b1 00 00 00    	je     100ccd <exec+0x22d>
  100c1c:	31 ed                	xor    %ebp,%ebp
  100c1e:	8d 74 24 2c          	lea    0x2c(%esp),%esi
  100c22:	eb 17                	jmp    100c3b <exec+0x19b>
  100c24:	8d 74 26 00          	lea    0x0(%esi,%eiz,1),%esi
  100c28:	0f b7 44 24 78       	movzwl 0x78(%esp),%eax
  100c2d:	83 c5 01             	add    $0x1,%ebp
  100c30:	83 c7 20             	add    $0x20,%edi
  100c33:	39 e8                	cmp    %ebp,%eax
  100c35:	0f 8e 92 00 00 00    	jle    100ccd <exec+0x22d>
    if(readi(ip, (char*)&ph, off, sizeof(ph)) != sizeof(ph))
  100c3b:	6a 20                	push   $0x20
  100c3d:	57                   	push   %edi
  100c3e:	56                   	push   %esi
  100c3f:	53                   	push   %ebx
  100c40:	e8 0b 0d 00 00       	call   101950 <readi>
  100c45:	83 c4 10             	add    $0x10,%esp
  100c48:	83 f8 20             	cmp    $0x20,%eax
  100c4b:	0f 85 af 01 00 00    	jne    100e00 <exec+0x360>
      goto bad;
    if(ph.type != ELF_PROG_LOAD)
  100c51:	83 7c 24 2c 01       	cmpl   $0x1,0x2c(%esp)
  100c56:	75 d0                	jne    100c28 <exec+0x188>
      continue;
    if(ph.va + ph.memsz < ph.va || ph.va + ph.memsz > sz || ph.memsz < ph.filesz)
  100c58:	8b 44 24 34          	mov    0x34(%esp),%eax
  100c5c:	8b 54 24 40          	mov    0x40(%esp),%edx
  100c60:	89 c1                	mov    %eax,%ecx
  100c62:	01 d1                	add    %edx,%ecx
  100c64:	0f 82 96 01 00 00    	jb     100e00 <exec+0x360>
  100c6a:	39 4c 24 0c          	cmp    %ecx,0xc(%esp)
  100c6e:	0f 82 8c 01 00 00    	jb     100e00 <exec+0x360>
  100c74:	8b 4c 24 3c          	mov    0x3c(%esp),%ecx
  100c78:	39 ca                	cmp    %ecx,%edx
  100c7a:	0f 82 80 01 00 00    	jb     100e00 <exec+0x360>
      goto bad;
    if(readi(ip, mem + ph.va, ph.offset, ph.filesz) != ph.filesz)
  100c80:	51                   	push   %ecx
  100c81:	ff 74 24 34          	pushl  0x34(%esp)
  100c85:	03 44 24 10          	add    0x10(%esp),%eax
  100c89:	50                   	push   %eax
  100c8a:	53                   	push   %ebx
  100c8b:	e8 c0 0c 00 00       	call   101950 <readi>
  100c90:	83 c4 10             	add    $0x10,%esp
  100c93:	3b 44 24 3c          	cmp    0x3c(%esp),%eax
  100c97:	0f 85 63 01 00 00    	jne    100e00 <exec+0x360>
      goto bad;
    memset(mem + ph.va + ph.filesz, 0, ph.memsz - ph.filesz);
  100c9d:	83 ec 04             	sub    $0x4,%esp
  if(mem == 0)
    goto bad;
  memset(mem, 0, sz);

  // Load program into memory.
  for(i=0, off=elf.phoff; i<elf.phnum; i++, off+=sizeof(ph)){
  100ca0:	83 c5 01             	add    $0x1,%ebp
  100ca3:	83 c7 20             	add    $0x20,%edi
      continue;
    if(ph.va + ph.memsz < ph.va || ph.va + ph.memsz > sz || ph.memsz < ph.filesz)
      goto bad;
    if(readi(ip, mem + ph.va, ph.offset, ph.filesz) != ph.filesz)
      goto bad;
    memset(mem + ph.va + ph.filesz, 0, ph.memsz - ph.filesz);
  100ca6:	8b 4c 24 44          	mov    0x44(%esp),%ecx
  100caa:	29 c1                	sub    %eax,%ecx
  100cac:	51                   	push   %ecx
  100cad:	6a 00                	push   $0x0
  100caf:	03 44 24 40          	add    0x40(%esp),%eax
  100cb3:	03 44 24 14          	add    0x14(%esp),%eax
  100cb7:	50                   	push   %eax
  100cb8:	e8 b3 32 00 00       	call   103f70 <memset>
  100cbd:	83 c4 10             	add    $0x10,%esp
  if(mem == 0)
    goto bad;
  memset(mem, 0, sz);

  // Load program into memory.
  for(i=0, off=elf.phoff; i<elf.phnum; i++, off+=sizeof(ph)){
  100cc0:	0f b7 44 24 78       	movzwl 0x78(%esp),%eax
  100cc5:	39 e8                	cmp    %ebp,%eax
  100cc7:	0f 8f 6e ff ff ff    	jg     100c3b <exec+0x19b>
      goto bad;
    if(readi(ip, mem + ph.va, ph.offset, ph.filesz) != ph.filesz)
      goto bad;
    memset(mem + ph.va + ph.filesz, 0, ph.memsz - ph.filesz);
  }
  iunlockput(ip);
  100ccd:	83 ec 0c             	sub    $0xc,%esp
  100cd0:	53                   	push   %ebx
  100cd1:	e8 2a 0c 00 00       	call   101900 <iunlockput>
  
  // Initialize stack.
  sp = sz;
  argp = sz - arglen - 4*(argc+1);
  100cd6:	8b 5c 24 1c          	mov    0x1c(%esp),%ebx

  // Copy argv strings and pointers to stack.
  *(uint*)(mem+argp + 4*argc) = 0;  // argv[argc]
  100cda:	8b 4c 24 24          	mov    0x24(%esp),%ecx
  100cde:	8b 54 24 18          	mov    0x18(%esp),%edx
  }
  iunlockput(ip);
  
  // Initialize stack.
  sp = sz;
  argp = sz - arglen - 4*(argc+1);
  100ce2:	89 df                	mov    %ebx,%edi
  100ce4:	2b 7c 24 28          	sub    0x28(%esp),%edi

  // Copy argv strings and pointers to stack.
  *(uint*)(mem+argp + 4*argc) = 0;  // argv[argc]
  for(i=argc-1; i>=0; i--){
  100ce8:	8d 69 ff             	lea    -0x1(%ecx),%ebp
  }
  iunlockput(ip);
  
  // Initialize stack.
  sp = sz;
  argp = sz - arglen - 4*(argc+1);
  100ceb:	2b 7c 24 2c          	sub    0x2c(%esp),%edi

  // Copy argv strings and pointers to stack.
  *(uint*)(mem+argp + 4*argc) = 0;  // argv[argc]
  100cef:	8d 04 8a             	lea    (%edx,%ecx,4),%eax
  for(i=argc-1; i>=0; i--){
  100cf2:	83 c4 10             	add    $0x10,%esp
  100cf5:	83 fd ff             	cmp    $0xffffffff,%ebp
  // Initialize stack.
  sp = sz;
  argp = sz - arglen - 4*(argc+1);

  // Copy argv strings and pointers to stack.
  *(uint*)(mem+argp + 4*argc) = 0;  // argv[argc]
  100cf8:	c7 04 38 00 00 00 00 	movl   $0x0,(%eax,%edi,1)
  100cff:	8d 34 3a             	lea    (%edx,%edi,1),%esi
  for(i=argc-1; i>=0; i--){
  100d02:	74 4a                	je     100d4e <exec+0x2ae>
  100d04:	89 7c 24 14          	mov    %edi,0x14(%esp)
  100d08:	8b bc 24 a4 00 00 00 	mov    0xa4(%esp),%edi
  100d0f:	89 f0                	mov    %esi,%eax
  100d11:	89 ee                	mov    %ebp,%esi
  100d13:	89 c5                	mov    %eax,%ebp
  100d15:	8d 76 00             	lea    0x0(%esi),%esi
    len = strlen(argv[i]) + 1;
  100d18:	83 ec 0c             	sub    $0xc,%esp
  100d1b:	ff 34 b7             	pushl  (%edi,%esi,4)
  100d1e:	e8 3d 34 00 00       	call   104160 <strlen>
    sp -= len;
    memmove(mem+sp, argv[i], len);
  100d23:	83 c4 0c             	add    $0xc,%esp

  // Copy argv strings and pointers to stack.
  *(uint*)(mem+argp + 4*argc) = 0;  // argv[argc]
  for(i=argc-1; i>=0; i--){
    len = strlen(argv[i]) + 1;
    sp -= len;
  100d26:	83 c0 01             	add    $0x1,%eax
    memmove(mem+sp, argv[i], len);
  100d29:	50                   	push   %eax

  // Copy argv strings and pointers to stack.
  *(uint*)(mem+argp + 4*argc) = 0;  // argv[argc]
  for(i=argc-1; i>=0; i--){
    len = strlen(argv[i]) + 1;
    sp -= len;
  100d2a:	29 c3                	sub    %eax,%ebx
    memmove(mem+sp, argv[i], len);
  100d2c:	ff 34 b7             	pushl  (%edi,%esi,4)
  100d2f:	8b 44 24 14          	mov    0x14(%esp),%eax
  100d33:	01 d8                	add    %ebx,%eax
  100d35:	50                   	push   %eax
  100d36:	e8 b5 32 00 00       	call   103ff0 <memmove>
    *(uint*)(mem+argp + 4*i) = sp;  // argv[i]
  100d3b:	89 5c b5 00          	mov    %ebx,0x0(%ebp,%esi,4)
  sp = sz;
  argp = sz - arglen - 4*(argc+1);

  // Copy argv strings and pointers to stack.
  *(uint*)(mem+argp + 4*argc) = 0;  // argv[argc]
  for(i=argc-1; i>=0; i--){
  100d3f:	83 ee 01             	sub    $0x1,%esi
  100d42:	83 c4 10             	add    $0x10,%esp
  100d45:	83 fe ff             	cmp    $0xffffffff,%esi
  100d48:	75 ce                	jne    100d18 <exec+0x278>
  100d4a:	8b 7c 24 14          	mov    0x14(%esp),%edi
  }

  // Stack frame for main(argc, argv), below arguments.
  sp = argp;
  sp -= 4;
  *(uint*)(mem+sp) = argp;
  100d4e:	8b 44 24 08          	mov    0x8(%esp),%eax
  sp -= 4;
  *(uint*)(mem+sp) = argc;
  100d52:	8b 54 24 10          	mov    0x10(%esp),%edx
  sp -= 4;
  100d56:	8d 5f f4             	lea    -0xc(%edi),%ebx
  100d59:	8b 8c 24 a0 00 00 00 	mov    0xa0(%esp),%ecx
  }

  // Stack frame for main(argc, argv), below arguments.
  sp = argp;
  sp -= 4;
  *(uint*)(mem+sp) = argp;
  100d60:	89 7c 38 fc          	mov    %edi,-0x4(%eax,%edi,1)
  sp -= 4;
  *(uint*)(mem+sp) = argc;
  100d64:	89 54 38 f8          	mov    %edx,-0x8(%eax,%edi,1)
  sp -= 4;
  *(uint*)(mem+sp) = 0xffffffff;   // fake return pc
  100d68:	c7 44 38 f4 ff ff ff 	movl   $0xffffffff,-0xc(%eax,%edi,1)
  100d6f:	ff 

  // Save program name for debugging.
  for(last=s=path; *s; s++)
  100d70:	8b 84 24 a0 00 00 00 	mov    0xa0(%esp),%eax
  100d77:	0f b6 10             	movzbl (%eax),%edx
  100d7a:	83 c0 01             	add    $0x1,%eax
  100d7d:	84 d2                	test   %dl,%dl
  100d7f:	74 1e                	je     100d9f <exec+0x2ff>
  100d81:	8d b4 26 00 00 00 00 	lea    0x0(%esi,%eiz,1),%esi
    if(*s == '/')
      last = s+1;
  100d88:	80 fa 2f             	cmp    $0x2f,%dl
  *(uint*)(mem+sp) = argc;
  sp -= 4;
  *(uint*)(mem+sp) = 0xffffffff;   // fake return pc

  // Save program name for debugging.
  for(last=s=path; *s; s++)
  100d8b:	0f b6 10             	movzbl (%eax),%edx
    if(*s == '/')
      last = s+1;
  100d8e:	0f 44 c8             	cmove  %eax,%ecx
  100d91:	83 c0 01             	add    $0x1,%eax
  *(uint*)(mem+sp) = argc;
  sp -= 4;
  *(uint*)(mem+sp) = 0xffffffff;   // fake return pc

  // Save program name for debugging.
  for(last=s=path; *s; s++)
  100d94:	84 d2                	test   %dl,%dl
  100d96:	75 f0                	jne    100d88 <exec+0x2e8>
  100d98:	89 8c 24 a0 00 00 00 	mov    %ecx,0xa0(%esp)
    if(*s == '/')
      last = s+1;
  safestrcpy(cp->name, last, sizeof(cp->name));
  100d9f:	c7 c6 f8 ff ff ff    	mov    $0xfffffff8,%esi
  100da5:	83 ec 04             	sub    $0x4,%esp
  100da8:	6a 10                	push   $0x10
  100daa:	ff b4 24 a8 00 00 00 	pushl  0xa8(%esp)
  100db1:	65 8b 06             	mov    %gs:(%esi),%eax
  100db4:	83 c0 6c             	add    $0x6c,%eax
  100db7:	50                   	push   %eax
  100db8:	e8 63 33 00 00       	call   104120 <safestrcpy>

  // Commit to the new image.
  kfree(cp->mem, cp->sz);
  100dbd:	65 8b 06             	mov    %gs:(%esi),%eax
  100dc0:	5a                   	pop    %edx
  100dc1:	59                   	pop    %ecx
  100dc2:	ff 70 04             	pushl  0x4(%eax)
  100dc5:	ff 30                	pushl  (%eax)
  100dc7:	e8 74 15 00 00       	call   102340 <kfree>
  cp->mem = mem;
  100dcc:	65 8b 06             	mov    %gs:(%esi),%eax
  100dcf:	8b 54 24 18          	mov    0x18(%esp),%edx
  100dd3:	89 10                	mov    %edx,(%eax)
  cp->sz = sz;
  100dd5:	8b 54 24 1c          	mov    0x1c(%esp),%edx
  100dd9:	89 50 04             	mov    %edx,0x4(%eax)
  cp->tf->eip = elf.entry;  // main
  100ddc:	8b 40 18             	mov    0x18(%eax),%eax
  100ddf:	8b 54 24 74          	mov    0x74(%esp),%edx
  cp->tf->esp = sp;
  100de3:	89 58 44             	mov    %ebx,0x44(%eax)

  // Commit to the new image.
  kfree(cp->mem, cp->sz);
  cp->mem = mem;
  cp->sz = sz;
  cp->tf->eip = elf.entry;  // main
  100de6:	89 50 38             	mov    %edx,0x38(%eax)
  cp->tf->esp = sp;
  usegment();
  100de9:	e8 92 25 00 00       	call   103380 <usegment>
  return 0;
  100dee:	83 c4 10             	add    $0x10,%esp
  100df1:	31 c0                	xor    %eax,%eax
 bad:
  if(mem)
    kfree(mem, sz);
  iunlockput(ip);
  return -1;
}
  100df3:	81 c4 8c 00 00 00    	add    $0x8c,%esp
  100df9:	5b                   	pop    %ebx
  100dfa:	5e                   	pop    %esi
  100dfb:	5f                   	pop    %edi
  100dfc:	5d                   	pop    %ebp
  100dfd:	c3                   	ret    
  100dfe:	66 90                	xchg   %ax,%ax
  usegment();
  return 0;

 bad:
  if(mem)
    kfree(mem, sz);
  100e00:	83 ec 08             	sub    $0x8,%esp
  100e03:	ff 74 24 14          	pushl  0x14(%esp)
  100e07:	ff 74 24 14          	pushl  0x14(%esp)
  100e0b:	e8 30 15 00 00       	call   102340 <kfree>
  100e10:	83 c4 10             	add    $0x10,%esp
  iunlockput(ip);
  100e13:	83 ec 0c             	sub    $0xc,%esp
  100e16:	53                   	push   %ebx
  100e17:	e8 e4 0a 00 00       	call   101900 <iunlockput>
  return -1;
  100e1c:	83 c4 10             	add    $0x10,%esp
  100e1f:	b8 ff ff ff ff       	mov    $0xffffffff,%eax
}
  100e24:	81 c4 8c 00 00 00    	add    $0x8c,%esp
  100e2a:	5b                   	pop    %ebx
  100e2b:	5e                   	pop    %esi
  100e2c:	5f                   	pop    %edi
  100e2d:	5d                   	pop    %ebp
  100e2e:	c3                   	ret    
    sz += ph.memsz;
  }
  
  // Arguments.
  arglen = 0;
  for(argc=0; argv[argc]; argc++)
  100e2f:	b8 04 00 00 00       	mov    $0x4,%eax
  100e34:	c7 44 24 1c 04 00 00 	movl   $0x4,0x1c(%esp)
  100e3b:	00 
  100e3c:	c7 44 24 18 00 00 00 	movl   $0x0,0x18(%esp)
  100e43:	00 
  100e44:	c7 44 24 10 00 00 00 	movl   $0x0,0x10(%esp)
  100e4b:	00 
  100e4c:	c7 44 24 14 00 00 00 	movl   $0x0,0x14(%esp)
  100e53:	00 
  100e54:	e9 80 fd ff ff       	jmp    100bd9 <exec+0x139>
  // Program segments.
  if(readi(ip, (char*)&elf, 0, sizeof(elf)) < sizeof(elf))
    goto bad;
  if(elf.magic != ELF_MAGIC)
    goto bad;
  for(i=0, off=elf.phoff; i<elf.phnum; i++, off+=sizeof(ph)){
  100e59:	be ff 1f 00 00       	mov    $0x1fff,%esi
  100e5e:	e9 0c fd ff ff       	jmp    100b6f <exec+0xcf>
  struct elfhdr elf;
  struct inode *ip;
  struct proghdr ph;

  if((ip = namei(path)) == 0)
    return -1;
  100e63:	b8 ff ff ff ff       	mov    $0xffffffff,%eax
  100e68:	eb ba                	jmp    100e24 <exec+0x384>
  100e6a:	66 90                	xchg   %ax,%ax
  100e6c:	66 90                	xchg   %ax,%ax
  100e6e:	66 90                	xchg   %ax,%ax

00100e70 <fileinit>:
  struct file file[NFILE];
} ftable;

void
fileinit(void)
{
  100e70:	83 ec 14             	sub    $0x14,%esp
  initlock(&ftable.lock, "ftable");
  100e73:	68 01 60 10 00       	push   $0x106001
  100e78:	68 a0 b0 10 00       	push   $0x10b0a0
  100e7d:	e8 9e 2e 00 00       	call   103d20 <initlock>
}
  100e82:	83 c4 1c             	add    $0x1c,%esp
  100e85:	c3                   	ret    
  100e86:	8d 76 00             	lea    0x0(%esi),%esi
  100e89:	8d bc 27 00 00 00 00 	lea    0x0(%edi,%eiz,1),%edi

00100e90 <filealloc>:

// Allocate a file structure.
struct file*
filealloc(void)
{
  100e90:	53                   	push   %ebx
  struct file *f;

  acquire(&ftable.lock);
  for(f = ftable.file; f < ftable.file + NFILE; f++){
  100e91:	bb d4 b0 10 00       	mov    $0x10b0d4,%ebx
}

// Allocate a file structure.
struct file*
filealloc(void)
{
  100e96:	83 ec 14             	sub    $0x14,%esp
  struct file *f;

  acquire(&ftable.lock);
  100e99:	68 a0 b0 10 00       	push   $0x10b0a0
  100e9e:	e8 9d 2e 00 00       	call   103d40 <acquire>
  100ea3:	83 c4 10             	add    $0x10,%esp
  100ea6:	eb 13                	jmp    100ebb <filealloc+0x2b>
  100ea8:	90                   	nop
  100ea9:	8d b4 26 00 00 00 00 	lea    0x0(%esi,%eiz,1),%esi
  for(f = ftable.file; f < ftable.file + NFILE; f++){
  100eb0:	83 c3 18             	add    $0x18,%ebx
  100eb3:	81 fb 34 ba 10 00    	cmp    $0x10ba34,%ebx
  100eb9:	74 25                	je     100ee0 <filealloc+0x50>
    if(f->ref == 0){
  100ebb:	8b 43 04             	mov    0x4(%ebx),%eax
  100ebe:	85 c0                	test   %eax,%eax
  100ec0:	75 ee                	jne    100eb0 <filealloc+0x20>
      f->ref = 1;
      release(&ftable.lock);
  100ec2:	83 ec 0c             	sub    $0xc,%esp
  struct file *f;

  acquire(&ftable.lock);
  for(f = ftable.file; f < ftable.file + NFILE; f++){
    if(f->ref == 0){
      f->ref = 1;
  100ec5:	c7 43 04 01 00 00 00 	movl   $0x1,0x4(%ebx)
      release(&ftable.lock);
  100ecc:	68 a0 b0 10 00       	push   $0x10b0a0
  100ed1:	e8 4a 30 00 00       	call   103f20 <release>
      return f;
  100ed6:	83 c4 10             	add    $0x10,%esp
  100ed9:	89 d8                	mov    %ebx,%eax
    }
  }
  release(&ftable.lock);
  return 0;
}
  100edb:	83 c4 08             	add    $0x8,%esp
  100ede:	5b                   	pop    %ebx
  100edf:	c3                   	ret    
      f->ref = 1;
      release(&ftable.lock);
      return f;
    }
  }
  release(&ftable.lock);
  100ee0:	83 ec 0c             	sub    $0xc,%esp
  100ee3:	68 a0 b0 10 00       	push   $0x10b0a0
  100ee8:	e8 33 30 00 00       	call   103f20 <release>
  return 0;
  100eed:	83 c4 10             	add    $0x10,%esp
  100ef0:	31 c0                	xor    %eax,%eax
}
  100ef2:	83 c4 08             	add    $0x8,%esp
  100ef5:	5b                   	pop    %ebx
  100ef6:	c3                   	ret    
  100ef7:	89 f6                	mov    %esi,%esi
  100ef9:	8d bc 27 00 00 00 00 	lea    0x0(%edi,%eiz,1),%edi

00100f00 <filedup>:

// Increment ref count for file f.
struct file*
filedup(struct file *f)
{
  100f00:	53                   	push   %ebx
  100f01:	83 ec 14             	sub    $0x14,%esp
  100f04:	8b 5c 24 1c          	mov    0x1c(%esp),%ebx
  acquire(&ftable.lock);
  100f08:	68 a0 b0 10 00       	push   $0x10b0a0
  100f0d:	e8 2e 2e 00 00       	call   103d40 <acquire>
  if(f->ref < 1)
  100f12:	8b 43 04             	mov    0x4(%ebx),%eax
  100f15:	83 c4 10             	add    $0x10,%esp
  100f18:	85 c0                	test   %eax,%eax
  100f1a:	7e 1a                	jle    100f36 <filedup+0x36>
    panic("filedup");
  f->ref++;
  100f1c:	83 c0 01             	add    $0x1,%eax
  release(&ftable.lock);
  100f1f:	83 ec 0c             	sub    $0xc,%esp
filedup(struct file *f)
{
  acquire(&ftable.lock);
  if(f->ref < 1)
    panic("filedup");
  f->ref++;
  100f22:	89 43 04             	mov    %eax,0x4(%ebx)
  release(&ftable.lock);
  100f25:	68 a0 b0 10 00       	push   $0x10b0a0
  100f2a:	e8 f1 2f 00 00       	call   103f20 <release>
  return f;
}
  100f2f:	83 c4 18             	add    $0x18,%esp
  100f32:	89 d8                	mov    %ebx,%eax
  100f34:	5b                   	pop    %ebx
  100f35:	c3                   	ret    
struct file*
filedup(struct file *f)
{
  acquire(&ftable.lock);
  if(f->ref < 1)
    panic("filedup");
  100f36:	83 ec 0c             	sub    $0xc,%esp
  100f39:	68 08 60 10 00       	push   $0x106008
  100f3e:	e8 dd fa ff ff       	call   100a20 <panic>
  100f43:	8d b6 00 00 00 00    	lea    0x0(%esi),%esi
  100f49:	8d bc 27 00 00 00 00 	lea    0x0(%edi,%eiz,1),%edi

00100f50 <fileclose>:
}

// Close file f.  (Decrement ref count, close when reaches 0.)
void
fileclose(struct file *f)
{
  100f50:	55                   	push   %ebp
  100f51:	57                   	push   %edi
  100f52:	56                   	push   %esi
  100f53:	53                   	push   %ebx
  100f54:	83 ec 28             	sub    $0x28,%esp
  100f57:	8b 5c 24 3c          	mov    0x3c(%esp),%ebx
  struct file ff;

  acquire(&ftable.lock);
  100f5b:	68 a0 b0 10 00       	push   $0x10b0a0
  100f60:	e8 db 2d 00 00       	call   103d40 <acquire>
  if(f->ref < 1)
  100f65:	8b 43 04             	mov    0x4(%ebx),%eax
  100f68:	83 c4 10             	add    $0x10,%esp
  100f6b:	85 c0                	test   %eax,%eax
  100f6d:	0f 8e 85 00 00 00    	jle    100ff8 <fileclose+0xa8>
    panic("fileclose");
  if(--f->ref > 0){
  100f73:	83 e8 01             	sub    $0x1,%eax
  100f76:	85 c0                	test   %eax,%eax
  100f78:	89 43 04             	mov    %eax,0x4(%ebx)
  100f7b:	74 1b                	je     100f98 <fileclose+0x48>
    release(&ftable.lock);
  100f7d:	c7 44 24 30 a0 b0 10 	movl   $0x10b0a0,0x30(%esp)
  100f84:	00 
  
  if(ff.type == FD_PIPE)
    pipeclose(ff.pipe, ff.writable);
  else if(ff.type == FD_INODE)
    iput(ff.ip);
}
  100f85:	83 c4 1c             	add    $0x1c,%esp
  100f88:	5b                   	pop    %ebx
  100f89:	5e                   	pop    %esi
  100f8a:	5f                   	pop    %edi
  100f8b:	5d                   	pop    %ebp

  acquire(&ftable.lock);
  if(f->ref < 1)
    panic("fileclose");
  if(--f->ref > 0){
    release(&ftable.lock);
  100f8c:	e9 8f 2f 00 00       	jmp    103f20 <release>
  100f91:	8d b4 26 00 00 00 00 	lea    0x0(%esi,%eiz,1),%esi
    return;
  }
  ff = *f;
  100f98:	0f b6 43 09          	movzbl 0x9(%ebx),%eax
  100f9c:	8b 33                	mov    (%ebx),%esi
  f->ref = 0;
  f->type = FD_NONE;
  release(&ftable.lock);
  100f9e:	83 ec 0c             	sub    $0xc,%esp
    panic("fileclose");
  if(--f->ref > 0){
    release(&ftable.lock);
    return;
  }
  ff = *f;
  100fa1:	8b 7b 0c             	mov    0xc(%ebx),%edi
  100fa4:	8b 6b 10             	mov    0x10(%ebx),%ebp
  f->ref = 0;
  f->type = FD_NONE;
  100fa7:	c7 03 00 00 00 00    	movl   $0x0,(%ebx)
    panic("fileclose");
  if(--f->ref > 0){
    release(&ftable.lock);
    return;
  }
  ff = *f;
  100fad:	88 44 24 1b          	mov    %al,0x1b(%esp)
  f->ref = 0;
  f->type = FD_NONE;
  release(&ftable.lock);
  100fb1:	68 a0 b0 10 00       	push   $0x10b0a0
  100fb6:	e8 65 2f 00 00       	call   103f20 <release>
  
  if(ff.type == FD_PIPE)
  100fbb:	83 c4 10             	add    $0x10,%esp
  100fbe:	83 fe 01             	cmp    $0x1,%esi
  100fc1:	74 0d                	je     100fd0 <fileclose+0x80>
    pipeclose(ff.pipe, ff.writable);
  else if(ff.type == FD_INODE)
  100fc3:	83 fe 02             	cmp    $0x2,%esi
  100fc6:	74 20                	je     100fe8 <fileclose+0x98>
    iput(ff.ip);
}
  100fc8:	83 c4 1c             	add    $0x1c,%esp
  100fcb:	5b                   	pop    %ebx
  100fcc:	5e                   	pop    %esi
  100fcd:	5f                   	pop    %edi
  100fce:	5d                   	pop    %ebp
  100fcf:	c3                   	ret    
  f->ref = 0;
  f->type = FD_NONE;
  release(&ftable.lock);
  
  if(ff.type == FD_PIPE)
    pipeclose(ff.pipe, ff.writable);
  100fd0:	83 ec 08             	sub    $0x8,%esp
  100fd3:	0f be 74 24 17       	movsbl 0x17(%esp),%esi
  100fd8:	56                   	push   %esi
  100fd9:	57                   	push   %edi
  100fda:	e8 61 1e 00 00       	call   102e40 <pipeclose>
  100fdf:	83 c4 10             	add    $0x10,%esp
  100fe2:	eb e4                	jmp    100fc8 <fileclose+0x78>
  100fe4:	8d 74 26 00          	lea    0x0(%esi,%eiz,1),%esi
  else if(ff.type == FD_INODE)
    iput(ff.ip);
  100fe8:	89 6c 24 30          	mov    %ebp,0x30(%esp)
}
  100fec:	83 c4 1c             	add    $0x1c,%esp
  100fef:	5b                   	pop    %ebx
  100ff0:	5e                   	pop    %esi
  100ff1:	5f                   	pop    %edi
  100ff2:	5d                   	pop    %ebp
  release(&ftable.lock);
  
  if(ff.type == FD_PIPE)
    pipeclose(ff.pipe, ff.writable);
  else if(ff.type == FD_INODE)
    iput(ff.ip);
  100ff3:	e9 a8 07 00 00       	jmp    1017a0 <iput>
{
  struct file ff;

  acquire(&ftable.lock);
  if(f->ref < 1)
    panic("fileclose");
  100ff8:	83 ec 0c             	sub    $0xc,%esp
  100ffb:	68 10 60 10 00       	push   $0x106010
  101000:	e8 1b fa ff ff       	call   100a20 <panic>
  101005:	8d 74 26 00          	lea    0x0(%esi,%eiz,1),%esi
  101009:	8d bc 27 00 00 00 00 	lea    0x0(%edi,%eiz,1),%edi

00101010 <filestat>:
}

// Get metadata about file f.
int
filestat(struct file *f, struct statv6 *st)
{
  101010:	53                   	push   %ebx
  101011:	83 ec 08             	sub    $0x8,%esp
  101014:	8b 5c 24 10          	mov    0x10(%esp),%ebx
  if(f->type == FD_INODE){
  101018:	83 3b 02             	cmpl   $0x2,(%ebx)
  10101b:	75 33                	jne    101050 <filestat+0x40>
    ilock(f->ip);
  10101d:	83 ec 0c             	sub    $0xc,%esp
  101020:	ff 73 10             	pushl  0x10(%ebx)
  101023:	e8 d8 04 00 00       	call   101500 <ilock>
    stati(f->ip, st);
  101028:	58                   	pop    %eax
  101029:	5a                   	pop    %edx
  10102a:	ff 74 24 1c          	pushl  0x1c(%esp)
  10102e:	ff 73 10             	pushl  0x10(%ebx)
  101031:	e8 ea 08 00 00       	call   101920 <stati>
    iunlock(f->ip);
  101036:	59                   	pop    %ecx
  101037:	ff 73 10             	pushl  0x10(%ebx)
  10103a:	e8 d1 05 00 00       	call   101610 <iunlock>
    return 0;
  10103f:	83 c4 10             	add    $0x10,%esp
  101042:	31 c0                	xor    %eax,%eax
  }
  return -1;
}
  101044:	83 c4 08             	add    $0x8,%esp
  101047:	5b                   	pop    %ebx
  101048:	c3                   	ret    
  101049:	8d b4 26 00 00 00 00 	lea    0x0(%esi,%eiz,1),%esi
  101050:	83 c4 08             	add    $0x8,%esp
    ilock(f->ip);
    stati(f->ip, st);
    iunlock(f->ip);
    return 0;
  }
  return -1;
  101053:	b8 ff ff ff ff       	mov    $0xffffffff,%eax
}
  101058:	5b                   	pop    %ebx
  101059:	c3                   	ret    
  10105a:	8d b6 00 00 00 00    	lea    0x0(%esi),%esi

00101060 <fileread>:

// Read from file f.  Addr is kernel address.
int
fileread(struct file *f, char *addr, int n)
{
  101060:	57                   	push   %edi
  101061:	56                   	push   %esi
  101062:	53                   	push   %ebx
  101063:	8b 5c 24 10          	mov    0x10(%esp),%ebx
  101067:	8b 74 24 14          	mov    0x14(%esp),%esi
  10106b:	8b 7c 24 18          	mov    0x18(%esp),%edi
  int r;

  if(f->readable == 0)
  10106f:	80 7b 08 00          	cmpb   $0x0,0x8(%ebx)
  101073:	74 5b                	je     1010d0 <fileread+0x70>
    return -1;
  if(f->type == FD_PIPE)
  101075:	8b 03                	mov    (%ebx),%eax
  101077:	83 f8 01             	cmp    $0x1,%eax
  10107a:	74 44                	je     1010c0 <fileread+0x60>
    return piperead(f->pipe, addr, n);
  if(f->type == FD_INODE){
  10107c:	83 f8 02             	cmp    $0x2,%eax
  10107f:	75 56                	jne    1010d7 <fileread+0x77>
    ilock(f->ip);
  101081:	83 ec 0c             	sub    $0xc,%esp
  101084:	ff 73 10             	pushl  0x10(%ebx)
  101087:	e8 74 04 00 00       	call   101500 <ilock>
    if((r = readi(f->ip, addr, f->off, n)) > 0)
  10108c:	57                   	push   %edi
  10108d:	ff 73 14             	pushl  0x14(%ebx)
  101090:	56                   	push   %esi
  101091:	ff 73 10             	pushl  0x10(%ebx)
  101094:	e8 b7 08 00 00       	call   101950 <readi>
  101099:	83 c4 20             	add    $0x20,%esp
  10109c:	85 c0                	test   %eax,%eax
  10109e:	89 c6                	mov    %eax,%esi
  1010a0:	7e 03                	jle    1010a5 <fileread+0x45>
      f->off += r;
  1010a2:	01 43 14             	add    %eax,0x14(%ebx)
    iunlock(f->ip);
  1010a5:	83 ec 0c             	sub    $0xc,%esp
  1010a8:	ff 73 10             	pushl  0x10(%ebx)
  1010ab:	e8 60 05 00 00       	call   101610 <iunlock>
    return r;
  1010b0:	83 c4 10             	add    $0x10,%esp
    return -1;
  if(f->type == FD_PIPE)
    return piperead(f->pipe, addr, n);
  if(f->type == FD_INODE){
    ilock(f->ip);
    if((r = readi(f->ip, addr, f->off, n)) > 0)
  1010b3:	89 f0                	mov    %esi,%eax
      f->off += r;
    iunlock(f->ip);
    return r;
  }
  panic("fileread");
}
  1010b5:	5b                   	pop    %ebx
  1010b6:	5e                   	pop    %esi
  1010b7:	5f                   	pop    %edi
  1010b8:	c3                   	ret    
  1010b9:	8d b4 26 00 00 00 00 	lea    0x0(%esi,%eiz,1),%esi
  int r;

  if(f->readable == 0)
    return -1;
  if(f->type == FD_PIPE)
    return piperead(f->pipe, addr, n);
  1010c0:	8b 43 0c             	mov    0xc(%ebx),%eax
  1010c3:	89 44 24 10          	mov    %eax,0x10(%esp)
      f->off += r;
    iunlock(f->ip);
    return r;
  }
  panic("fileread");
}
  1010c7:	5b                   	pop    %ebx
  1010c8:	5e                   	pop    %esi
  1010c9:	5f                   	pop    %edi
  int r;

  if(f->readable == 0)
    return -1;
  if(f->type == FD_PIPE)
    return piperead(f->pipe, addr, n);
  1010ca:	e9 41 1f 00 00       	jmp    103010 <piperead>
  1010cf:	90                   	nop
fileread(struct file *f, char *addr, int n)
{
  int r;

  if(f->readable == 0)
    return -1;
  1010d0:	b8 ff ff ff ff       	mov    $0xffffffff,%eax
  1010d5:	eb de                	jmp    1010b5 <fileread+0x55>
    if((r = readi(f->ip, addr, f->off, n)) > 0)
      f->off += r;
    iunlock(f->ip);
    return r;
  }
  panic("fileread");
  1010d7:	83 ec 0c             	sub    $0xc,%esp
  1010da:	68 1a 60 10 00       	push   $0x10601a
  1010df:	e8 3c f9 ff ff       	call   100a20 <panic>
  1010e4:	8d b6 00 00 00 00    	lea    0x0(%esi),%esi
  1010ea:	8d bf 00 00 00 00    	lea    0x0(%edi),%edi

001010f0 <filewrite>:
}

// Write to file f.  Addr is kernel address.
int
filewrite(struct file *f, char *addr, int n)
{
  1010f0:	57                   	push   %edi
  1010f1:	56                   	push   %esi
  1010f2:	53                   	push   %ebx
  1010f3:	8b 5c 24 10          	mov    0x10(%esp),%ebx
  1010f7:	8b 74 24 14          	mov    0x14(%esp),%esi
  1010fb:	8b 7c 24 18          	mov    0x18(%esp),%edi
  int r;

  if(f->writable == 0)
  1010ff:	80 7b 09 00          	cmpb   $0x0,0x9(%ebx)
  101103:	74 5b                	je     101160 <filewrite+0x70>
    return -1;
  if(f->type == FD_PIPE)
  101105:	8b 03                	mov    (%ebx),%eax
  101107:	83 f8 01             	cmp    $0x1,%eax
  10110a:	74 44                	je     101150 <filewrite+0x60>
    return pipewrite(f->pipe, addr, n);
  if(f->type == FD_INODE){
  10110c:	83 f8 02             	cmp    $0x2,%eax
  10110f:	75 56                	jne    101167 <filewrite+0x77>
    ilock(f->ip);
  101111:	83 ec 0c             	sub    $0xc,%esp
  101114:	ff 73 10             	pushl  0x10(%ebx)
  101117:	e8 e4 03 00 00       	call   101500 <ilock>
    if((r = writei(f->ip, addr, f->off, n)) > 0)
  10111c:	57                   	push   %edi
  10111d:	ff 73 14             	pushl  0x14(%ebx)
  101120:	56                   	push   %esi
  101121:	ff 73 10             	pushl  0x10(%ebx)
  101124:	e8 37 09 00 00       	call   101a60 <writei>
  101129:	83 c4 20             	add    $0x20,%esp
  10112c:	85 c0                	test   %eax,%eax
  10112e:	89 c6                	mov    %eax,%esi
  101130:	7e 03                	jle    101135 <filewrite+0x45>
      f->off += r;
  101132:	01 43 14             	add    %eax,0x14(%ebx)
    iunlock(f->ip);
  101135:	83 ec 0c             	sub    $0xc,%esp
  101138:	ff 73 10             	pushl  0x10(%ebx)
  10113b:	e8 d0 04 00 00       	call   101610 <iunlock>
    return r;
  101140:	83 c4 10             	add    $0x10,%esp
    return -1;
  if(f->type == FD_PIPE)
    return pipewrite(f->pipe, addr, n);
  if(f->type == FD_INODE){
    ilock(f->ip);
    if((r = writei(f->ip, addr, f->off, n)) > 0)
  101143:	89 f0                	mov    %esi,%eax
      f->off += r;
    iunlock(f->ip);
    return r;
  }
  panic("filewrite");
}
  101145:	5b                   	pop    %ebx
  101146:	5e                   	pop    %esi
  101147:	5f                   	pop    %edi
  101148:	c3                   	ret    
  101149:	8d b4 26 00 00 00 00 	lea    0x0(%esi,%eiz,1),%esi
  int r;

  if(f->writable == 0)
    return -1;
  if(f->type == FD_PIPE)
    return pipewrite(f->pipe, addr, n);
  101150:	8b 43 0c             	mov    0xc(%ebx),%eax
  101153:	89 44 24 10          	mov    %eax,0x10(%esp)
      f->off += r;
    iunlock(f->ip);
    return r;
  }
  panic("filewrite");
}
  101157:	5b                   	pop    %ebx
  101158:	5e                   	pop    %esi
  101159:	5f                   	pop    %edi
  int r;

  if(f->writable == 0)
    return -1;
  if(f->type == FD_PIPE)
    return pipewrite(f->pipe, addr, n);
  10115a:	e9 71 1d 00 00       	jmp    102ed0 <pipewrite>
  10115f:	90                   	nop
filewrite(struct file *f, char *addr, int n)
{
  int r;

  if(f->writable == 0)
    return -1;
  101160:	b8 ff ff ff ff       	mov    $0xffffffff,%eax
  101165:	eb de                	jmp    101145 <filewrite+0x55>
    if((r = writei(f->ip, addr, f->off, n)) > 0)
      f->off += r;
    iunlock(f->ip);
    return r;
  }
  panic("filewrite");
  101167:	83 ec 0c             	sub    $0xc,%esp
  10116a:	68 23 60 10 00       	push   $0x106023
  10116f:	e8 ac f8 ff ff       	call   100a20 <panic>
  101174:	66 90                	xchg   %ax,%ax
  101176:	66 90                	xchg   %ax,%ax
  101178:	66 90                	xchg   %ax,%ax
  10117a:	66 90                	xchg   %ax,%ax
  10117c:	66 90                	xchg   %ax,%ax
  10117e:	66 90                	xchg   %ax,%ax

00101180 <iget>:

// Find the inode with number inum on device dev
// and return the in-memory copy.
static struct inode*
iget(uint dev, uint inum)
{
  101180:	55                   	push   %ebp
  101181:	57                   	push   %edi
  101182:	89 d5                	mov    %edx,%ebp
  101184:	56                   	push   %esi
  101185:	53                   	push   %ebx
  101186:	89 c7                	mov    %eax,%edi
  struct inode *ip, *empty;

  acquire(&icache.lock);

  // Try for cached inode.
  empty = 0;
  101188:	31 f6                	xor    %esi,%esi
  for(ip = &icache.inode[0]; ip < &icache.inode[NINODE]; ip++){
  10118a:	bb f4 ba 10 00       	mov    $0x10baf4,%ebx

// Find the inode with number inum on device dev
// and return the in-memory copy.
static struct inode*
iget(uint dev, uint inum)
{
  10118f:	83 ec 18             	sub    $0x18,%esp
  struct inode *ip, *empty;

  acquire(&icache.lock);
  101192:	68 c0 ba 10 00       	push   $0x10bac0
  101197:	e8 a4 2b 00 00       	call   103d40 <acquire>
  10119c:	83 c4 10             	add    $0x10,%esp
  10119f:	eb 16                	jmp    1011b7 <iget+0x37>
  1011a1:	8d b4 26 00 00 00 00 	lea    0x0(%esi,%eiz,1),%esi
    if(ip->ref > 0 && ip->dev == dev && ip->inum == inum){
      ip->ref++;
      release(&icache.lock);
      return ip;
    }
    if(empty == 0 && ip->ref == 0)    // Remember empty slot.
  1011a8:	85 f6                	test   %esi,%esi
  1011aa:	74 44                	je     1011f0 <iget+0x70>

  acquire(&icache.lock);

  // Try for cached inode.
  empty = 0;
  for(ip = &icache.inode[0]; ip < &icache.inode[NINODE]; ip++){
  1011ac:	83 c3 50             	add    $0x50,%ebx
  1011af:	81 fb 94 ca 10 00    	cmp    $0x10ca94,%ebx
  1011b5:	74 49                	je     101200 <iget+0x80>
    if(ip->ref > 0 && ip->dev == dev && ip->inum == inum){
  1011b7:	8b 4b 08             	mov    0x8(%ebx),%ecx
  1011ba:	85 c9                	test   %ecx,%ecx
  1011bc:	7e ea                	jle    1011a8 <iget+0x28>
  1011be:	39 3b                	cmp    %edi,(%ebx)
  1011c0:	75 e6                	jne    1011a8 <iget+0x28>
  1011c2:	39 6b 04             	cmp    %ebp,0x4(%ebx)
  1011c5:	75 e1                	jne    1011a8 <iget+0x28>
      ip->ref++;
      release(&icache.lock);
  1011c7:	83 ec 0c             	sub    $0xc,%esp

  // Try for cached inode.
  empty = 0;
  for(ip = &icache.inode[0]; ip < &icache.inode[NINODE]; ip++){
    if(ip->ref > 0 && ip->dev == dev && ip->inum == inum){
      ip->ref++;
  1011ca:	83 c1 01             	add    $0x1,%ecx
      release(&icache.lock);
      return ip;
  1011cd:	89 de                	mov    %ebx,%esi
  // Try for cached inode.
  empty = 0;
  for(ip = &icache.inode[0]; ip < &icache.inode[NINODE]; ip++){
    if(ip->ref > 0 && ip->dev == dev && ip->inum == inum){
      ip->ref++;
      release(&icache.lock);
  1011cf:	68 c0 ba 10 00       	push   $0x10bac0

  // Try for cached inode.
  empty = 0;
  for(ip = &icache.inode[0]; ip < &icache.inode[NINODE]; ip++){
    if(ip->ref > 0 && ip->dev == dev && ip->inum == inum){
      ip->ref++;
  1011d4:	89 4b 08             	mov    %ecx,0x8(%ebx)
      release(&icache.lock);
  1011d7:	e8 44 2d 00 00       	call   103f20 <release>
      return ip;
  1011dc:	83 c4 10             	add    $0x10,%esp
  ip->ref = 1;
  ip->flags = 0;
  release(&icache.lock);

  return ip;
}
  1011df:	89 f0                	mov    %esi,%eax
  1011e1:	83 c4 0c             	add    $0xc,%esp
  1011e4:	5b                   	pop    %ebx
  1011e5:	5e                   	pop    %esi
  1011e6:	5f                   	pop    %edi
  1011e7:	5d                   	pop    %ebp
  1011e8:	c3                   	ret    
  1011e9:	8d b4 26 00 00 00 00 	lea    0x0(%esi,%eiz,1),%esi
    if(ip->ref > 0 && ip->dev == dev && ip->inum == inum){
      ip->ref++;
      release(&icache.lock);
      return ip;
    }
    if(empty == 0 && ip->ref == 0)    // Remember empty slot.
  1011f0:	85 c9                	test   %ecx,%ecx
  1011f2:	0f 44 f3             	cmove  %ebx,%esi

  acquire(&icache.lock);

  // Try for cached inode.
  empty = 0;
  for(ip = &icache.inode[0]; ip < &icache.inode[NINODE]; ip++){
  1011f5:	83 c3 50             	add    $0x50,%ebx
  1011f8:	81 fb 94 ca 10 00    	cmp    $0x10ca94,%ebx
  1011fe:	75 b7                	jne    1011b7 <iget+0x37>
    if(empty == 0 && ip->ref == 0)    // Remember empty slot.
      empty = ip;
  }

  // Allocate fresh inode.
  if(empty == 0)
  101200:	85 f6                	test   %esi,%esi
  101202:	74 2d                	je     101231 <iget+0xb1>
  ip = empty;
  ip->dev = dev;
  ip->inum = inum;
  ip->ref = 1;
  ip->flags = 0;
  release(&icache.lock);
  101204:	83 ec 0c             	sub    $0xc,%esp
  // Allocate fresh inode.
  if(empty == 0)
    panic("iget: no inodes");

  ip = empty;
  ip->dev = dev;
  101207:	89 3e                	mov    %edi,(%esi)
  ip->inum = inum;
  101209:	89 6e 04             	mov    %ebp,0x4(%esi)
  ip->ref = 1;
  10120c:	c7 46 08 01 00 00 00 	movl   $0x1,0x8(%esi)
  ip->flags = 0;
  101213:	c7 46 0c 00 00 00 00 	movl   $0x0,0xc(%esi)
  release(&icache.lock);
  10121a:	68 c0 ba 10 00       	push   $0x10bac0
  10121f:	e8 fc 2c 00 00       	call   103f20 <release>

  return ip;
  101224:	83 c4 10             	add    $0x10,%esp
}
  101227:	89 f0                	mov    %esi,%eax
  101229:	83 c4 0c             	add    $0xc,%esp
  10122c:	5b                   	pop    %ebx
  10122d:	5e                   	pop    %esi
  10122e:	5f                   	pop    %edi
  10122f:	5d                   	pop    %ebp
  101230:	c3                   	ret    
      empty = ip;
  }

  // Allocate fresh inode.
  if(empty == 0)
    panic("iget: no inodes");
  101231:	83 ec 0c             	sub    $0xc,%esp
  101234:	68 2d 60 10 00       	push   $0x10602d
  101239:	e8 e2 f7 ff ff       	call   100a20 <panic>
  10123e:	66 90                	xchg   %ax,%ax

00101240 <readsb>:
static void itrunc(struct inode*);

// Read the super block.
static void
readsb(int dev, struct superblock *sb)
{
  101240:	56                   	push   %esi
  101241:	53                   	push   %ebx
  101242:	89 d6                	mov    %edx,%esi
  101244:	83 ec 0c             	sub    $0xc,%esp
  struct buf *bp;
  
  bp = bread(dev, 1);
  101247:	6a 01                	push   $0x1
  101249:	50                   	push   %eax
  10124a:	e8 71 ef ff ff       	call   1001c0 <bread>
  10124f:	89 c3                	mov    %eax,%ebx
  memmove(sb, bp->data, sizeof(*sb));
  101251:	8d 40 18             	lea    0x18(%eax),%eax
  101254:	83 c4 0c             	add    $0xc,%esp
  101257:	6a 0c                	push   $0xc
  101259:	50                   	push   %eax
  10125a:	56                   	push   %esi
  10125b:	e8 90 2d 00 00       	call   103ff0 <memmove>
  brelse(bp);
  101260:	89 1c 24             	mov    %ebx,(%esp)
  101263:	e8 68 f0 ff ff       	call   1002d0 <brelse>
}
  101268:	83 c4 14             	add    $0x14,%esp
  10126b:	5b                   	pop    %ebx
  10126c:	5e                   	pop    %esi
  10126d:	c3                   	ret    
  10126e:	66 90                	xchg   %ax,%ax

00101270 <balloc>:
// Blocks. 

// Allocate a disk block.
static uint
balloc(uint dev)
{
  101270:	55                   	push   %ebp
  101271:	57                   	push   %edi
  101272:	56                   	push   %esi
  101273:	53                   	push   %ebx
  101274:	83 ec 2c             	sub    $0x2c,%esp
  int b, bi, m;
  struct buf *bp;
  struct superblock sb;

  bp = 0;
  readsb(dev, &sb);
  101277:	8d 54 24 14          	lea    0x14(%esp),%edx
// Blocks. 

// Allocate a disk block.
static uint
balloc(uint dev)
{
  10127b:	89 44 24 0c          	mov    %eax,0xc(%esp)
  int b, bi, m;
  struct buf *bp;
  struct superblock sb;

  bp = 0;
  readsb(dev, &sb);
  10127f:	e8 bc ff ff ff       	call   101240 <readsb>
  for(b = 0; b < sb.size; b += BPB){
  101284:	8b 44 24 14          	mov    0x14(%esp),%eax
  101288:	85 c0                	test   %eax,%eax
  10128a:	0f 84 a2 00 00 00    	je     101332 <balloc+0xc2>
  101290:	c7 44 24 08 00 00 00 	movl   $0x0,0x8(%esp)
  101297:	00 
    bp = bread(dev, BBLOCK(b, sb.ninodes));
    for(bi = 0; bi < BPB; bi++){
      m = 1 << (bi % 8);
  101298:	be 01 00 00 00       	mov    $0x1,%esi
  struct superblock sb;

  bp = 0;
  readsb(dev, &sb);
  for(b = 0; b < sb.size; b += BPB){
    bp = bread(dev, BBLOCK(b, sb.ninodes));
  10129d:	83 ec 08             	sub    $0x8,%esp
    for(bi = 0; bi < BPB; bi++){
  1012a0:	31 db                	xor    %ebx,%ebx
  struct superblock sb;

  bp = 0;
  readsb(dev, &sb);
  for(b = 0; b < sb.size; b += BPB){
    bp = bread(dev, BBLOCK(b, sb.ninodes));
  1012a2:	8b 44 24 24          	mov    0x24(%esp),%eax
  1012a6:	8b 54 24 10          	mov    0x10(%esp),%edx
  1012aa:	c1 e8 03             	shr    $0x3,%eax
  1012ad:	c1 fa 0c             	sar    $0xc,%edx
  1012b0:	8d 44 10 03          	lea    0x3(%eax,%edx,1),%eax
  1012b4:	50                   	push   %eax
  1012b5:	ff 74 24 18          	pushl  0x18(%esp)
  1012b9:	e8 02 ef ff ff       	call   1001c0 <bread>
  1012be:	83 c4 10             	add    $0x10,%esp
  1012c1:	89 c7                	mov    %eax,%edi
  1012c3:	eb 0e                	jmp    1012d3 <balloc+0x63>
  1012c5:	8d 76 00             	lea    0x0(%esi),%esi
    for(bi = 0; bi < BPB; bi++){
  1012c8:	83 c3 01             	add    $0x1,%ebx
  1012cb:	81 fb 00 10 00 00    	cmp    $0x1000,%ebx
  1012d1:	74 3d                	je     101310 <balloc+0xa0>
      m = 1 << (bi % 8);
  1012d3:	89 d9                	mov    %ebx,%ecx
  1012d5:	89 f2                	mov    %esi,%edx
  1012d7:	83 e1 07             	and    $0x7,%ecx
  1012da:	d3 e2                	shl    %cl,%edx
      if((bp->data[bi/8] & m) == 0){  // Is block free?
  1012dc:	89 d9                	mov    %ebx,%ecx
  1012de:	c1 f9 03             	sar    $0x3,%ecx
  1012e1:	0f b6 6c 0f 18       	movzbl 0x18(%edi,%ecx,1),%ebp
  1012e6:	85 d5                	test   %edx,%ebp
  1012e8:	75 de                	jne    1012c8 <balloc+0x58>
        bp->data[bi/8] |= m;  // Mark block in use on disk.
        bwrite(bp);
  1012ea:	83 ec 0c             	sub    $0xc,%esp
  for(b = 0; b < sb.size; b += BPB){
    bp = bread(dev, BBLOCK(b, sb.ninodes));
    for(bi = 0; bi < BPB; bi++){
      m = 1 << (bi % 8);
      if((bp->data[bi/8] & m) == 0){  // Is block free?
        bp->data[bi/8] |= m;  // Mark block in use on disk.
  1012ed:	09 ea                	or     %ebp,%edx
  1012ef:	88 54 0f 18          	mov    %dl,0x18(%edi,%ecx,1)
        bwrite(bp);
  1012f3:	57                   	push   %edi
  1012f4:	e8 a7 ef ff ff       	call   1002a0 <bwrite>
        brelse(bp);
  1012f9:	89 3c 24             	mov    %edi,(%esp)
  1012fc:	e8 cf ef ff ff       	call   1002d0 <brelse>
        return b + bi;
  101301:	8b 44 24 18          	mov    0x18(%esp),%eax
      }
    }
    brelse(bp);
  }
  panic("balloc: out of blocks");
}
  101305:	83 c4 3c             	add    $0x3c,%esp
      m = 1 << (bi % 8);
      if((bp->data[bi/8] & m) == 0){  // Is block free?
        bp->data[bi/8] |= m;  // Mark block in use on disk.
        bwrite(bp);
        brelse(bp);
        return b + bi;
  101308:	01 d8                	add    %ebx,%eax
      }
    }
    brelse(bp);
  }
  panic("balloc: out of blocks");
}
  10130a:	5b                   	pop    %ebx
  10130b:	5e                   	pop    %esi
  10130c:	5f                   	pop    %edi
  10130d:	5d                   	pop    %ebp
  10130e:	c3                   	ret    
  10130f:	90                   	nop
        bwrite(bp);
        brelse(bp);
        return b + bi;
      }
    }
    brelse(bp);
  101310:	83 ec 0c             	sub    $0xc,%esp
  101313:	57                   	push   %edi
  101314:	e8 b7 ef ff ff       	call   1002d0 <brelse>
  struct buf *bp;
  struct superblock sb;

  bp = 0;
  readsb(dev, &sb);
  for(b = 0; b < sb.size; b += BPB){
  101319:	81 44 24 18 00 10 00 	addl   $0x1000,0x18(%esp)
  101320:	00 
  101321:	8b 44 24 18          	mov    0x18(%esp),%eax
  101325:	83 c4 10             	add    $0x10,%esp
  101328:	39 44 24 14          	cmp    %eax,0x14(%esp)
  10132c:	0f 87 6b ff ff ff    	ja     10129d <balloc+0x2d>
        return b + bi;
      }
    }
    brelse(bp);
  }
  panic("balloc: out of blocks");
  101332:	83 ec 0c             	sub    $0xc,%esp
  101335:	68 3d 60 10 00       	push   $0x10603d
  10133a:	e8 e1 f6 ff ff       	call   100a20 <panic>
  10133f:	90                   	nop

00101340 <bfree>:
}

// Free a disk block.
static void
bfree(int dev, uint b)
{
  101340:	57                   	push   %edi
  101341:	56                   	push   %esi
  101342:	89 c6                	mov    %eax,%esi
  101344:	53                   	push   %ebx
  101345:	89 d3                	mov    %edx,%ebx
  101347:	83 ec 18             	sub    $0x18,%esp
static void
bzero(int dev, int bno)
{
  struct buf *bp;
  
  bp = bread(dev, bno);
  10134a:	52                   	push   %edx
  10134b:	50                   	push   %eax
  10134c:	e8 6f ee ff ff       	call   1001c0 <bread>
  memset(bp->data, 0, BSIZE);
  101351:	83 c4 0c             	add    $0xc,%esp
static void
bzero(int dev, int bno)
{
  struct buf *bp;
  
  bp = bread(dev, bno);
  101354:	89 c7                	mov    %eax,%edi
  memset(bp->data, 0, BSIZE);
  101356:	83 c0 18             	add    $0x18,%eax
  101359:	68 00 02 00 00       	push   $0x200
  10135e:	6a 00                	push   $0x0
  101360:	50                   	push   %eax
  101361:	e8 0a 2c 00 00       	call   103f70 <memset>
  bwrite(bp);
  101366:	89 3c 24             	mov    %edi,(%esp)
  101369:	e8 32 ef ff ff       	call   1002a0 <bwrite>
  brelse(bp);
  10136e:	89 3c 24             	mov    %edi,(%esp)
  101371:	e8 5a ef ff ff       	call   1002d0 <brelse>
  struct superblock sb;
  int bi, m;

  bzero(dev, b);

  readsb(dev, &sb);
  101376:	8d 54 24 14          	lea    0x14(%esp),%edx
  10137a:	89 f0                	mov    %esi,%eax
  10137c:	e8 bf fe ff ff       	call   101240 <readsb>
  bp = bread(dev, BBLOCK(b, sb.ninodes));
  101381:	58                   	pop    %eax
  101382:	5a                   	pop    %edx
  101383:	8b 44 24 14          	mov    0x14(%esp),%eax
  101387:	89 da                	mov    %ebx,%edx
  101389:	c1 ea 0c             	shr    $0xc,%edx
  10138c:	c1 e8 03             	shr    $0x3,%eax
  10138f:	8d 44 10 03          	lea    0x3(%eax,%edx,1),%eax
  101393:	50                   	push   %eax
  101394:	56                   	push   %esi
  101395:	e8 26 ee ff ff       	call   1001c0 <bread>
  bi = b % BPB;
  m = 1 << (bi % 8);
  10139a:	89 d9                	mov    %ebx,%ecx
  if((bp->data[bi/8] & m) == 0)
  10139c:	81 e3 ff 0f 00 00    	and    $0xfff,%ebx
  bzero(dev, b);

  readsb(dev, &sb);
  bp = bread(dev, BBLOCK(b, sb.ninodes));
  bi = b % BPB;
  m = 1 << (bi % 8);
  1013a2:	ba 01 00 00 00       	mov    $0x1,%edx
  1013a7:	83 e1 07             	and    $0x7,%ecx
  if((bp->data[bi/8] & m) == 0)
  1013aa:	c1 fb 03             	sar    $0x3,%ebx
  1013ad:	83 c4 10             	add    $0x10,%esp
  bzero(dev, b);

  readsb(dev, &sb);
  bp = bread(dev, BBLOCK(b, sb.ninodes));
  bi = b % BPB;
  m = 1 << (bi % 8);
  1013b0:	d3 e2                	shl    %cl,%edx
  if((bp->data[bi/8] & m) == 0)
  1013b2:	0f b6 4c 18 18       	movzbl 0x18(%eax,%ebx,1),%ecx
  1013b7:	85 d1                	test   %edx,%ecx
  1013b9:	74 22                	je     1013dd <bfree+0x9d>
    panic("freeing free block");
  bp->data[bi/8] &= ~m;  // Mark block free on disk.
  1013bb:	f7 d2                	not    %edx
  1013bd:	89 c6                	mov    %eax,%esi
  bwrite(bp);
  1013bf:	83 ec 0c             	sub    $0xc,%esp
  bp = bread(dev, BBLOCK(b, sb.ninodes));
  bi = b % BPB;
  m = 1 << (bi % 8);
  if((bp->data[bi/8] & m) == 0)
    panic("freeing free block");
  bp->data[bi/8] &= ~m;  // Mark block free on disk.
  1013c2:	21 ca                	and    %ecx,%edx
  1013c4:	88 54 1e 18          	mov    %dl,0x18(%esi,%ebx,1)
  bwrite(bp);
  1013c8:	56                   	push   %esi
  1013c9:	e8 d2 ee ff ff       	call   1002a0 <bwrite>
  brelse(bp);
  1013ce:	89 34 24             	mov    %esi,(%esp)
  1013d1:	e8 fa ee ff ff       	call   1002d0 <brelse>
}
  1013d6:	83 c4 20             	add    $0x20,%esp
  1013d9:	5b                   	pop    %ebx
  1013da:	5e                   	pop    %esi
  1013db:	5f                   	pop    %edi
  1013dc:	c3                   	ret    
  readsb(dev, &sb);
  bp = bread(dev, BBLOCK(b, sb.ninodes));
  bi = b % BPB;
  m = 1 << (bi % 8);
  if((bp->data[bi/8] & m) == 0)
    panic("freeing free block");
  1013dd:	83 ec 0c             	sub    $0xc,%esp
  1013e0:	68 53 60 10 00       	push   $0x106053
  1013e5:	e8 36 f6 ff ff       	call   100a20 <panic>
  1013ea:	8d b6 00 00 00 00    	lea    0x0(%esi),%esi

001013f0 <bmap>:

// Return the disk block address of the nth block in inode ip.
// If there is no such block, bmap allocates one.
static uint
bmap(struct inode *ip, uint bn)
{
  1013f0:	55                   	push   %ebp
  1013f1:	57                   	push   %edi
  1013f2:	56                   	push   %esi
  1013f3:	53                   	push   %ebx
  1013f4:	89 c6                	mov    %eax,%esi
  1013f6:	83 ec 0c             	sub    $0xc,%esp
  uint addr, *a;
  struct buf *bp;

  if(bn < NDIRECT){
  1013f9:	83 fa 0b             	cmp    $0xb,%edx
  1013fc:	77 12                	ja     101410 <bmap+0x20>
  1013fe:	8d 1c 90             	lea    (%eax,%edx,4),%ebx
    if((addr = ip->addrs[bn]) == 0)
  101401:	8b 43 1c             	mov    0x1c(%ebx),%eax
  101404:	85 c0                	test   %eax,%eax
  101406:	74 68                	je     101470 <bmap+0x80>
    brelse(bp);
    return addr;
  }

  panic("bmap: out of range");
}
  101408:	83 c4 0c             	add    $0xc,%esp
  10140b:	5b                   	pop    %ebx
  10140c:	5e                   	pop    %esi
  10140d:	5f                   	pop    %edi
  10140e:	5d                   	pop    %ebp
  10140f:	c3                   	ret    
  if(bn < NDIRECT){
    if((addr = ip->addrs[bn]) == 0)
      ip->addrs[bn] = addr = balloc(ip->dev);
    return addr;
  }
  bn -= NDIRECT;
  101410:	8d 5a f4             	lea    -0xc(%edx),%ebx

  if(bn < NINDIRECT){
  101413:	83 fb 7f             	cmp    $0x7f,%ebx
  101416:	77 7c                	ja     101494 <bmap+0xa4>
    // Load indirect block, allocating if necessary.
    if((addr = ip->addrs[NDIRECT]) == 0)
  101418:	8b 40 4c             	mov    0x4c(%eax),%eax
  10141b:	85 c0                	test   %eax,%eax
  10141d:	74 69                	je     101488 <bmap+0x98>
      ip->addrs[NDIRECT] = addr = balloc(ip->dev);
    bp = bread(ip->dev, addr);
  10141f:	83 ec 08             	sub    $0x8,%esp
  101422:	50                   	push   %eax
  101423:	ff 36                	pushl  (%esi)
  101425:	e8 96 ed ff ff       	call   1001c0 <bread>
    a = (uint*)bp->data;
  
    if((addr = a[bn]) == 0){
  10142a:	8d 6c 98 18          	lea    0x18(%eax,%ebx,4),%ebp
  10142e:	83 c4 10             	add    $0x10,%esp

  if(bn < NINDIRECT){
    // Load indirect block, allocating if necessary.
    if((addr = ip->addrs[NDIRECT]) == 0)
      ip->addrs[NDIRECT] = addr = balloc(ip->dev);
    bp = bread(ip->dev, addr);
  101431:	89 c7                	mov    %eax,%edi
    a = (uint*)bp->data;
  
    if((addr = a[bn]) == 0){
  101433:	8b 5d 00             	mov    0x0(%ebp),%ebx
  101436:	85 db                	test   %ebx,%ebx
  101438:	75 18                	jne    101452 <bmap+0x62>
      a[bn] = addr = balloc(ip->dev);
  10143a:	8b 06                	mov    (%esi),%eax
  10143c:	e8 2f fe ff ff       	call   101270 <balloc>
      bwrite(bp);
  101441:	83 ec 0c             	sub    $0xc,%esp
      ip->addrs[NDIRECT] = addr = balloc(ip->dev);
    bp = bread(ip->dev, addr);
    a = (uint*)bp->data;
  
    if((addr = a[bn]) == 0){
      a[bn] = addr = balloc(ip->dev);
  101444:	89 45 00             	mov    %eax,0x0(%ebp)
  101447:	89 c3                	mov    %eax,%ebx
      bwrite(bp);
  101449:	57                   	push   %edi
  10144a:	e8 51 ee ff ff       	call   1002a0 <bwrite>
  10144f:	83 c4 10             	add    $0x10,%esp
    }
    brelse(bp);
  101452:	83 ec 0c             	sub    $0xc,%esp
  101455:	57                   	push   %edi
  101456:	e8 75 ee ff ff       	call   1002d0 <brelse>
  10145b:	83 c4 10             	add    $0x10,%esp
  10145e:	89 d8                	mov    %ebx,%eax
    return addr;
  }

  panic("bmap: out of range");
}
  101460:	83 c4 0c             	add    $0xc,%esp
  101463:	5b                   	pop    %ebx
  101464:	5e                   	pop    %esi
  101465:	5f                   	pop    %edi
  101466:	5d                   	pop    %ebp
  101467:	c3                   	ret    
  101468:	90                   	nop
  101469:	8d b4 26 00 00 00 00 	lea    0x0(%esi,%eiz,1),%esi
  uint addr, *a;
  struct buf *bp;

  if(bn < NDIRECT){
    if((addr = ip->addrs[bn]) == 0)
      ip->addrs[bn] = addr = balloc(ip->dev);
  101470:	8b 06                	mov    (%esi),%eax
  101472:	e8 f9 fd ff ff       	call   101270 <balloc>
  101477:	89 43 1c             	mov    %eax,0x1c(%ebx)
    brelse(bp);
    return addr;
  }

  panic("bmap: out of range");
}
  10147a:	83 c4 0c             	add    $0xc,%esp
  10147d:	5b                   	pop    %ebx
  10147e:	5e                   	pop    %esi
  10147f:	5f                   	pop    %edi
  101480:	5d                   	pop    %ebp
  101481:	c3                   	ret    
  101482:	8d b6 00 00 00 00    	lea    0x0(%esi),%esi
  bn -= NDIRECT;

  if(bn < NINDIRECT){
    // Load indirect block, allocating if necessary.
    if((addr = ip->addrs[NDIRECT]) == 0)
      ip->addrs[NDIRECT] = addr = balloc(ip->dev);
  101488:	8b 06                	mov    (%esi),%eax
  10148a:	e8 e1 fd ff ff       	call   101270 <balloc>
  10148f:	89 46 4c             	mov    %eax,0x4c(%esi)
  101492:	eb 8b                	jmp    10141f <bmap+0x2f>
    }
    brelse(bp);
    return addr;
  }

  panic("bmap: out of range");
  101494:	83 ec 0c             	sub    $0xc,%esp
  101497:	68 66 60 10 00       	push   $0x106066
  10149c:	e8 7f f5 ff ff       	call   100a20 <panic>
  1014a1:	eb 0d                	jmp    1014b0 <iinit>
  1014a3:	90                   	nop
  1014a4:	90                   	nop
  1014a5:	90                   	nop
  1014a6:	90                   	nop
  1014a7:	90                   	nop
  1014a8:	90                   	nop
  1014a9:	90                   	nop
  1014aa:	90                   	nop
  1014ab:	90                   	nop
  1014ac:	90                   	nop
  1014ad:	90                   	nop
  1014ae:	90                   	nop
  1014af:	90                   	nop

001014b0 <iinit>:
  struct inode inode[NINODE];
} icache;

void
iinit(void)
{
  1014b0:	83 ec 14             	sub    $0x14,%esp
  initlock(&icache.lock, "icache");
  1014b3:	68 79 60 10 00       	push   $0x106079
  1014b8:	68 c0 ba 10 00       	push   $0x10bac0
  1014bd:	e8 5e 28 00 00       	call   103d20 <initlock>
}
  1014c2:	83 c4 1c             	add    $0x1c,%esp
  1014c5:	c3                   	ret    
  1014c6:	8d 76 00             	lea    0x0(%esi),%esi
  1014c9:	8d bc 27 00 00 00 00 	lea    0x0(%edi,%eiz,1),%edi

001014d0 <idup>:

// Increment reference count for ip.
// Returns ip to enable ip = idup(ip1) idiom.
struct inode*
idup(struct inode *ip)
{
  1014d0:	53                   	push   %ebx
  1014d1:	83 ec 14             	sub    $0x14,%esp
  1014d4:	8b 5c 24 1c          	mov    0x1c(%esp),%ebx
  acquire(&icache.lock);
  1014d8:	68 c0 ba 10 00       	push   $0x10bac0
  1014dd:	e8 5e 28 00 00       	call   103d40 <acquire>
  ip->ref++;
  1014e2:	83 43 08 01          	addl   $0x1,0x8(%ebx)
  release(&icache.lock);
  1014e6:	c7 04 24 c0 ba 10 00 	movl   $0x10bac0,(%esp)
  1014ed:	e8 2e 2a 00 00       	call   103f20 <release>
  return ip;
}
  1014f2:	83 c4 18             	add    $0x18,%esp
  1014f5:	89 d8                	mov    %ebx,%eax
  1014f7:	5b                   	pop    %ebx
  1014f8:	c3                   	ret    
  1014f9:	8d b4 26 00 00 00 00 	lea    0x0(%esi,%eiz,1),%esi

00101500 <ilock>:

// Lock the given inode.
void
ilock(struct inode *ip)
{
  101500:	56                   	push   %esi
  101501:	53                   	push   %ebx
  101502:	83 ec 04             	sub    $0x4,%esp
  101505:	8b 5c 24 10          	mov    0x10(%esp),%ebx
  struct buf *bp;
  struct dinode *dip;

  if(ip == 0 || ip->ref < 1)
  101509:	85 db                	test   %ebx,%ebx
  10150b:	0f 84 e7 00 00 00    	je     1015f8 <ilock+0xf8>
  101511:	8b 43 08             	mov    0x8(%ebx),%eax
  101514:	85 c0                	test   %eax,%eax
  101516:	0f 8e dc 00 00 00    	jle    1015f8 <ilock+0xf8>
    panic("ilock");

  acquire(&icache.lock);
  10151c:	83 ec 0c             	sub    $0xc,%esp
  10151f:	68 c0 ba 10 00       	push   $0x10bac0
  101524:	e8 17 28 00 00       	call   103d40 <acquire>
  while(ip->flags & I_BUSY)
  101529:	8b 43 0c             	mov    0xc(%ebx),%eax
  10152c:	83 c4 10             	add    $0x10,%esp
  10152f:	a8 01                	test   $0x1,%al
  101531:	74 1d                	je     101550 <ilock+0x50>
  101533:	90                   	nop
  101534:	8d 74 26 00          	lea    0x0(%esi,%eiz,1),%esi
    sleep(ip, &icache.lock);
  101538:	83 ec 08             	sub    $0x8,%esp
  10153b:	68 c0 ba 10 00       	push   $0x10bac0
  101540:	53                   	push   %ebx
  101541:	e8 5a 23 00 00       	call   1038a0 <sleep>

  if(ip == 0 || ip->ref < 1)
    panic("ilock");

  acquire(&icache.lock);
  while(ip->flags & I_BUSY)
  101546:	8b 43 0c             	mov    0xc(%ebx),%eax
  101549:	83 c4 10             	add    $0x10,%esp
  10154c:	a8 01                	test   $0x1,%al
  10154e:	75 e8                	jne    101538 <ilock+0x38>
    sleep(ip, &icache.lock);
  ip->flags |= I_BUSY;
  release(&icache.lock);
  101550:	83 ec 0c             	sub    $0xc,%esp
    panic("ilock");

  acquire(&icache.lock);
  while(ip->flags & I_BUSY)
    sleep(ip, &icache.lock);
  ip->flags |= I_BUSY;
  101553:	83 c8 01             	or     $0x1,%eax
  101556:	89 43 0c             	mov    %eax,0xc(%ebx)
  release(&icache.lock);
  101559:	68 c0 ba 10 00       	push   $0x10bac0
  10155e:	e8 bd 29 00 00       	call   103f20 <release>

  if(!(ip->flags & I_VALID)){
  101563:	83 c4 10             	add    $0x10,%esp
  101566:	f6 43 0c 02          	testb  $0x2,0xc(%ebx)
  10156a:	74 0c                	je     101578 <ilock+0x78>
    brelse(bp);
    ip->flags |= I_VALID;
    if(ip->type == 0)
      panic("ilock: no type");
  }
}
  10156c:	83 c4 04             	add    $0x4,%esp
  10156f:	5b                   	pop    %ebx
  101570:	5e                   	pop    %esi
  101571:	c3                   	ret    
  101572:	8d b6 00 00 00 00    	lea    0x0(%esi),%esi
    sleep(ip, &icache.lock);
  ip->flags |= I_BUSY;
  release(&icache.lock);

  if(!(ip->flags & I_VALID)){
    bp = bread(ip->dev, IBLOCK(ip->inum));
  101578:	8b 43 04             	mov    0x4(%ebx),%eax
  10157b:	83 ec 08             	sub    $0x8,%esp
  10157e:	c1 e8 03             	shr    $0x3,%eax
  101581:	83 c0 02             	add    $0x2,%eax
  101584:	50                   	push   %eax
  101585:	ff 33                	pushl  (%ebx)
  101587:	e8 34 ec ff ff       	call   1001c0 <bread>
  10158c:	89 c6                	mov    %eax,%esi
    dip = (struct dinode*)bp->data + ip->inum%IPB;
  10158e:	8b 43 04             	mov    0x4(%ebx),%eax
    ip->type = dip->type;
    ip->major = dip->major;
    ip->minor = dip->minor;
    ip->nlink = dip->nlink;
    ip->size = dip->size;
    memmove(ip->addrs, dip->addrs, sizeof(ip->addrs));
  101591:	83 c4 0c             	add    $0xc,%esp
  ip->flags |= I_BUSY;
  release(&icache.lock);

  if(!(ip->flags & I_VALID)){
    bp = bread(ip->dev, IBLOCK(ip->inum));
    dip = (struct dinode*)bp->data + ip->inum%IPB;
  101594:	83 e0 07             	and    $0x7,%eax
  101597:	c1 e0 06             	shl    $0x6,%eax
  10159a:	8d 44 06 18          	lea    0x18(%esi,%eax,1),%eax
    ip->type = dip->type;
  10159e:	0f b7 10             	movzwl (%eax),%edx
    ip->major = dip->major;
    ip->minor = dip->minor;
    ip->nlink = dip->nlink;
    ip->size = dip->size;
    memmove(ip->addrs, dip->addrs, sizeof(ip->addrs));
  1015a1:	83 c0 0c             	add    $0xc,%eax
  release(&icache.lock);

  if(!(ip->flags & I_VALID)){
    bp = bread(ip->dev, IBLOCK(ip->inum));
    dip = (struct dinode*)bp->data + ip->inum%IPB;
    ip->type = dip->type;
  1015a4:	66 89 53 10          	mov    %dx,0x10(%ebx)
    ip->major = dip->major;
  1015a8:	0f b7 50 f6          	movzwl -0xa(%eax),%edx
  1015ac:	66 89 53 12          	mov    %dx,0x12(%ebx)
    ip->minor = dip->minor;
  1015b0:	0f b7 50 f8          	movzwl -0x8(%eax),%edx
  1015b4:	66 89 53 14          	mov    %dx,0x14(%ebx)
    ip->nlink = dip->nlink;
  1015b8:	0f b7 50 fa          	movzwl -0x6(%eax),%edx
  1015bc:	66 89 53 16          	mov    %dx,0x16(%ebx)
    ip->size = dip->size;
  1015c0:	8b 50 fc             	mov    -0x4(%eax),%edx
  1015c3:	89 53 18             	mov    %edx,0x18(%ebx)
    memmove(ip->addrs, dip->addrs, sizeof(ip->addrs));
  1015c6:	6a 34                	push   $0x34
  1015c8:	50                   	push   %eax
  1015c9:	8d 43 1c             	lea    0x1c(%ebx),%eax
  1015cc:	50                   	push   %eax
  1015cd:	e8 1e 2a 00 00       	call   103ff0 <memmove>
    brelse(bp);
  1015d2:	89 34 24             	mov    %esi,(%esp)
  1015d5:	e8 f6 ec ff ff       	call   1002d0 <brelse>
    ip->flags |= I_VALID;
  1015da:	83 4b 0c 02          	orl    $0x2,0xc(%ebx)
    if(ip->type == 0)
  1015de:	83 c4 10             	add    $0x10,%esp
  1015e1:	66 83 7b 10 00       	cmpw   $0x0,0x10(%ebx)
  1015e6:	75 84                	jne    10156c <ilock+0x6c>
      panic("ilock: no type");
  1015e8:	83 ec 0c             	sub    $0xc,%esp
  1015eb:	68 86 60 10 00       	push   $0x106086
  1015f0:	e8 2b f4 ff ff       	call   100a20 <panic>
  1015f5:	8d 76 00             	lea    0x0(%esi),%esi
{
  struct buf *bp;
  struct dinode *dip;

  if(ip == 0 || ip->ref < 1)
    panic("ilock");
  1015f8:	83 ec 0c             	sub    $0xc,%esp
  1015fb:	68 80 60 10 00       	push   $0x106080
  101600:	e8 1b f4 ff ff       	call   100a20 <panic>
  101605:	8d 74 26 00          	lea    0x0(%esi,%eiz,1),%esi
  101609:	8d bc 27 00 00 00 00 	lea    0x0(%edi,%eiz,1),%edi

00101610 <iunlock>:
}

// Unlock the given inode.
void
iunlock(struct inode *ip)
{
  101610:	53                   	push   %ebx
  101611:	83 ec 08             	sub    $0x8,%esp
  101614:	8b 5c 24 10          	mov    0x10(%esp),%ebx
  if(ip == 0 || !(ip->flags & I_BUSY) || ip->ref < 1)
  101618:	85 db                	test   %ebx,%ebx
  10161a:	74 37                	je     101653 <iunlock+0x43>
  10161c:	f6 43 0c 01          	testb  $0x1,0xc(%ebx)
  101620:	74 31                	je     101653 <iunlock+0x43>
  101622:	8b 43 08             	mov    0x8(%ebx),%eax
  101625:	85 c0                	test   %eax,%eax
  101627:	7e 2a                	jle    101653 <iunlock+0x43>
    panic("iunlock");

  acquire(&icache.lock);
  101629:	83 ec 0c             	sub    $0xc,%esp
  10162c:	68 c0 ba 10 00       	push   $0x10bac0
  101631:	e8 0a 27 00 00       	call   103d40 <acquire>
  ip->flags &= ~I_BUSY;
  101636:	83 63 0c fe          	andl   $0xfffffffe,0xc(%ebx)
  wakeup(ip);
  10163a:	89 1c 24             	mov    %ebx,(%esp)
  10163d:	e8 0e 23 00 00       	call   103950 <wakeup>
  release(&icache.lock);
  101642:	c7 44 24 20 c0 ba 10 	movl   $0x10bac0,0x20(%esp)
  101649:	00 
}
  10164a:	83 c4 18             	add    $0x18,%esp
  10164d:	5b                   	pop    %ebx
    panic("iunlock");

  acquire(&icache.lock);
  ip->flags &= ~I_BUSY;
  wakeup(ip);
  release(&icache.lock);
  10164e:	e9 cd 28 00 00       	jmp    103f20 <release>
// Unlock the given inode.
void
iunlock(struct inode *ip)
{
  if(ip == 0 || !(ip->flags & I_BUSY) || ip->ref < 1)
    panic("iunlock");
  101653:	83 ec 0c             	sub    $0xc,%esp
  101656:	68 95 60 10 00       	push   $0x106095
  10165b:	e8 c0 f3 ff ff       	call   100a20 <panic>

00101660 <ialloc>:

//PAGEBREAK!
// Allocate a new inode with the given type on device dev.
struct inode*
ialloc(uint dev, short type)
{
  101660:	55                   	push   %ebp
  101661:	57                   	push   %edi
  101662:	56                   	push   %esi
  101663:	53                   	push   %ebx
  101664:	83 ec 2c             	sub    $0x2c,%esp
  101667:	8b 74 24 40          	mov    0x40(%esp),%esi
  int inum;
  struct buf *bp;
  struct dinode *dip;
  struct superblock sb;

  readsb(dev, &sb);
  10166b:	8d 54 24 14          	lea    0x14(%esp),%edx

//PAGEBREAK!
// Allocate a new inode with the given type on device dev.
struct inode*
ialloc(uint dev, short type)
{
  10166f:	8b 7c 24 44          	mov    0x44(%esp),%edi
  int inum;
  struct buf *bp;
  struct dinode *dip;
  struct superblock sb;

  readsb(dev, &sb);
  101673:	89 f0                	mov    %esi,%eax
  101675:	e8 c6 fb ff ff       	call   101240 <readsb>
  for(inum = 1; inum < sb.ninodes; inum++){  // loop over inode blocks
  10167a:	83 7c 24 1c 01       	cmpl   $0x1,0x1c(%esp)
  10167f:	0f 86 82 00 00 00    	jbe    101707 <ialloc+0xa7>
  101685:	bb 01 00 00 00       	mov    $0x1,%ebx
  10168a:	eb 19                	jmp    1016a5 <ialloc+0x45>
  10168c:	8d 74 26 00          	lea    0x0(%esi,%eiz,1),%esi
      dip->type = type;
      bwrite(bp);   // mark it allocated on the disk
      brelse(bp);
      return iget(dev, inum);
    }
    brelse(bp);
  101690:	83 ec 0c             	sub    $0xc,%esp
  struct buf *bp;
  struct dinode *dip;
  struct superblock sb;

  readsb(dev, &sb);
  for(inum = 1; inum < sb.ninodes; inum++){  // loop over inode blocks
  101693:	83 c3 01             	add    $0x1,%ebx
      dip->type = type;
      bwrite(bp);   // mark it allocated on the disk
      brelse(bp);
      return iget(dev, inum);
    }
    brelse(bp);
  101696:	55                   	push   %ebp
  101697:	e8 34 ec ff ff       	call   1002d0 <brelse>
  struct buf *bp;
  struct dinode *dip;
  struct superblock sb;

  readsb(dev, &sb);
  for(inum = 1; inum < sb.ninodes; inum++){  // loop over inode blocks
  10169c:	83 c4 10             	add    $0x10,%esp
  10169f:	39 5c 24 1c          	cmp    %ebx,0x1c(%esp)
  1016a3:	76 62                	jbe    101707 <ialloc+0xa7>
    bp = bread(dev, IBLOCK(inum));
  1016a5:	89 d8                	mov    %ebx,%eax
  1016a7:	83 ec 08             	sub    $0x8,%esp
  1016aa:	c1 e8 03             	shr    $0x3,%eax
  1016ad:	83 c0 02             	add    $0x2,%eax
  1016b0:	50                   	push   %eax
  1016b1:	56                   	push   %esi
  1016b2:	e8 09 eb ff ff       	call   1001c0 <bread>
  1016b7:	89 c5                	mov    %eax,%ebp
    dip = (struct dinode*)bp->data + inum%IPB;
  1016b9:	89 d8                	mov    %ebx,%eax
    if(dip->type == 0){  // a free inode
  1016bb:	83 c4 10             	add    $0x10,%esp
  struct superblock sb;

  readsb(dev, &sb);
  for(inum = 1; inum < sb.ninodes; inum++){  // loop over inode blocks
    bp = bread(dev, IBLOCK(inum));
    dip = (struct dinode*)bp->data + inum%IPB;
  1016be:	83 e0 07             	and    $0x7,%eax
  1016c1:	c1 e0 06             	shl    $0x6,%eax
  1016c4:	8d 54 05 18          	lea    0x18(%ebp,%eax,1),%edx
    if(dip->type == 0){  // a free inode
  1016c8:	66 83 3a 00          	cmpw   $0x0,(%edx)
  1016cc:	75 c2                	jne    101690 <ialloc+0x30>
      memset(dip, 0, sizeof(*dip));
  1016ce:	83 ec 04             	sub    $0x4,%esp
  1016d1:	6a 40                	push   $0x40
  1016d3:	6a 00                	push   $0x0
  1016d5:	52                   	push   %edx
  1016d6:	89 54 24 1c          	mov    %edx,0x1c(%esp)
  1016da:	e8 91 28 00 00       	call   103f70 <memset>
      dip->type = type;
  1016df:	8b 54 24 1c          	mov    0x1c(%esp),%edx
  1016e3:	66 89 3a             	mov    %di,(%edx)
      bwrite(bp);   // mark it allocated on the disk
  1016e6:	89 2c 24             	mov    %ebp,(%esp)
  1016e9:	e8 b2 eb ff ff       	call   1002a0 <bwrite>
      brelse(bp);
  1016ee:	89 2c 24             	mov    %ebp,(%esp)
  1016f1:	e8 da eb ff ff       	call   1002d0 <brelse>
      return iget(dev, inum);
  1016f6:	89 da                	mov    %ebx,%edx
  1016f8:	89 f0                	mov    %esi,%eax
  1016fa:	e8 81 fa ff ff       	call   101180 <iget>
    }
    brelse(bp);
  }
  panic("ialloc: no inodes");
}
  1016ff:	83 c4 3c             	add    $0x3c,%esp
  101702:	5b                   	pop    %ebx
  101703:	5e                   	pop    %esi
  101704:	5f                   	pop    %edi
  101705:	5d                   	pop    %ebp
  101706:	c3                   	ret    
      brelse(bp);
      return iget(dev, inum);
    }
    brelse(bp);
  }
  panic("ialloc: no inodes");
  101707:	83 ec 0c             	sub    $0xc,%esp
  10170a:	68 9d 60 10 00       	push   $0x10609d
  10170f:	e8 0c f3 ff ff       	call   100a20 <panic>
  101714:	8d b6 00 00 00 00    	lea    0x0(%esi),%esi
  10171a:	8d bf 00 00 00 00    	lea    0x0(%edi),%edi

00101720 <iupdate>:
}

// Copy inode, which has changed, from memory to disk.
void
iupdate(struct inode *ip)
{
  101720:	56                   	push   %esi
  101721:	53                   	push   %ebx
  101722:	83 ec 0c             	sub    $0xc,%esp
  101725:	8b 5c 24 18          	mov    0x18(%esp),%ebx
  struct buf *bp;
  struct dinode *dip;

  bp = bread(ip->dev, IBLOCK(ip->inum));
  101729:	8b 43 04             	mov    0x4(%ebx),%eax
  dip->type = ip->type;
  dip->major = ip->major;
  dip->minor = ip->minor;
  dip->nlink = ip->nlink;
  dip->size = ip->size;
  memmove(dip->addrs, ip->addrs, sizeof(ip->addrs));
  10172c:	83 c3 1c             	add    $0x1c,%ebx
iupdate(struct inode *ip)
{
  struct buf *bp;
  struct dinode *dip;

  bp = bread(ip->dev, IBLOCK(ip->inum));
  10172f:	c1 e8 03             	shr    $0x3,%eax
  101732:	83 c0 02             	add    $0x2,%eax
  101735:	50                   	push   %eax
  101736:	ff 73 e4             	pushl  -0x1c(%ebx)
  101739:	e8 82 ea ff ff       	call   1001c0 <bread>
  10173e:	89 c6                	mov    %eax,%esi
  dip = (struct dinode*)bp->data + ip->inum%IPB;
  101740:	8b 43 e8             	mov    -0x18(%ebx),%eax
  dip->type = ip->type;
  101743:	0f b7 53 f4          	movzwl -0xc(%ebx),%edx
  dip->major = ip->major;
  dip->minor = ip->minor;
  dip->nlink = ip->nlink;
  dip->size = ip->size;
  memmove(dip->addrs, ip->addrs, sizeof(ip->addrs));
  101747:	83 c4 0c             	add    $0xc,%esp
{
  struct buf *bp;
  struct dinode *dip;

  bp = bread(ip->dev, IBLOCK(ip->inum));
  dip = (struct dinode*)bp->data + ip->inum%IPB;
  10174a:	83 e0 07             	and    $0x7,%eax
  10174d:	c1 e0 06             	shl    $0x6,%eax
  101750:	8d 44 06 18          	lea    0x18(%esi,%eax,1),%eax
  dip->type = ip->type;
  101754:	66 89 10             	mov    %dx,(%eax)
  dip->major = ip->major;
  101757:	0f b7 53 f6          	movzwl -0xa(%ebx),%edx
  dip->minor = ip->minor;
  dip->nlink = ip->nlink;
  dip->size = ip->size;
  memmove(dip->addrs, ip->addrs, sizeof(ip->addrs));
  10175b:	83 c0 0c             	add    $0xc,%eax
  struct dinode *dip;

  bp = bread(ip->dev, IBLOCK(ip->inum));
  dip = (struct dinode*)bp->data + ip->inum%IPB;
  dip->type = ip->type;
  dip->major = ip->major;
  10175e:	66 89 50 f6          	mov    %dx,-0xa(%eax)
  dip->minor = ip->minor;
  101762:	0f b7 53 f8          	movzwl -0x8(%ebx),%edx
  101766:	66 89 50 f8          	mov    %dx,-0x8(%eax)
  dip->nlink = ip->nlink;
  10176a:	0f b7 53 fa          	movzwl -0x6(%ebx),%edx
  10176e:	66 89 50 fa          	mov    %dx,-0x6(%eax)
  dip->size = ip->size;
  101772:	8b 53 fc             	mov    -0x4(%ebx),%edx
  101775:	89 50 fc             	mov    %edx,-0x4(%eax)
  memmove(dip->addrs, ip->addrs, sizeof(ip->addrs));
  101778:	6a 34                	push   $0x34
  10177a:	53                   	push   %ebx
  10177b:	50                   	push   %eax
  10177c:	e8 6f 28 00 00       	call   103ff0 <memmove>
  bwrite(bp);
  101781:	89 34 24             	mov    %esi,(%esp)
  101784:	e8 17 eb ff ff       	call   1002a0 <bwrite>
  brelse(bp);
  101789:	89 74 24 20          	mov    %esi,0x20(%esp)
}
  10178d:	83 c4 14             	add    $0x14,%esp
  101790:	5b                   	pop    %ebx
  101791:	5e                   	pop    %esi
  dip->minor = ip->minor;
  dip->nlink = ip->nlink;
  dip->size = ip->size;
  memmove(dip->addrs, ip->addrs, sizeof(ip->addrs));
  bwrite(bp);
  brelse(bp);
  101792:	e9 39 eb ff ff       	jmp    1002d0 <brelse>
  101797:	89 f6                	mov    %esi,%esi
  101799:	8d bc 27 00 00 00 00 	lea    0x0(%edi,%eiz,1),%edi

001017a0 <iput>:
}

// Caller holds reference to unlocked ip.  Drop reference.
void
iput(struct inode *ip)
{
  1017a0:	55                   	push   %ebp
  1017a1:	57                   	push   %edi
  1017a2:	56                   	push   %esi
  1017a3:	53                   	push   %ebx
  1017a4:	83 ec 18             	sub    $0x18,%esp
  1017a7:	8b 74 24 2c          	mov    0x2c(%esp),%esi
  acquire(&icache.lock);
  1017ab:	68 c0 ba 10 00       	push   $0x10bac0
  1017b0:	e8 8b 25 00 00       	call   103d40 <acquire>
  if(ip->ref == 1 && (ip->flags & I_VALID) && ip->nlink == 0){
  1017b5:	8b 46 08             	mov    0x8(%esi),%eax
  1017b8:	83 c4 10             	add    $0x10,%esp
  1017bb:	83 f8 01             	cmp    $0x1,%eax
  1017be:	0f 85 ac 00 00 00    	jne    101870 <iput+0xd0>
  1017c4:	8b 56 0c             	mov    0xc(%esi),%edx
  1017c7:	f6 c2 02             	test   $0x2,%dl
  1017ca:	0f 84 a0 00 00 00    	je     101870 <iput+0xd0>
  1017d0:	66 83 7e 16 00       	cmpw   $0x0,0x16(%esi)
  1017d5:	0f 85 95 00 00 00    	jne    101870 <iput+0xd0>
    // inode is no longer used: truncate and free inode.
    if(ip->flags & I_BUSY)
  1017db:	f6 c2 01             	test   $0x1,%dl
  1017de:	0f 85 04 01 00 00    	jne    1018e8 <iput+0x148>
      panic("iput busy");
    ip->flags |= I_BUSY;
    release(&icache.lock);
  1017e4:	83 ec 0c             	sub    $0xc,%esp
  acquire(&icache.lock);
  if(ip->ref == 1 && (ip->flags & I_VALID) && ip->nlink == 0){
    // inode is no longer used: truncate and free inode.
    if(ip->flags & I_BUSY)
      panic("iput busy");
    ip->flags |= I_BUSY;
  1017e7:	83 ca 01             	or     $0x1,%edx
  1017ea:	8d 5e 1c             	lea    0x1c(%esi),%ebx
  1017ed:	89 56 0c             	mov    %edx,0xc(%esi)
    release(&icache.lock);
  1017f0:	68 c0 ba 10 00       	push   $0x10bac0
  1017f5:	8d 7e 4c             	lea    0x4c(%esi),%edi
  1017f8:	e8 23 27 00 00       	call   103f20 <release>
  1017fd:	83 c4 10             	add    $0x10,%esp
  101800:	eb 0d                	jmp    10180f <iput+0x6f>
  101802:	8d b6 00 00 00 00    	lea    0x0(%esi),%esi
  101808:	83 c3 04             	add    $0x4,%ebx
{
  int i, j;
  struct buf *bp;
  uint *a;

  for(i = 0; i < NDIRECT; i++){
  10180b:	39 fb                	cmp    %edi,%ebx
  10180d:	74 1b                	je     10182a <iput+0x8a>
    if(ip->addrs[i]){
  10180f:	8b 13                	mov    (%ebx),%edx
  101811:	85 d2                	test   %edx,%edx
  101813:	74 f3                	je     101808 <iput+0x68>
      bfree(ip->dev, ip->addrs[i]);
  101815:	8b 06                	mov    (%esi),%eax
  101817:	83 c3 04             	add    $0x4,%ebx
  10181a:	e8 21 fb ff ff       	call   101340 <bfree>
      ip->addrs[i] = 0;
  10181f:	c7 43 fc 00 00 00 00 	movl   $0x0,-0x4(%ebx)
{
  int i, j;
  struct buf *bp;
  uint *a;

  for(i = 0; i < NDIRECT; i++){
  101826:	39 fb                	cmp    %edi,%ebx
  101828:	75 e5                	jne    10180f <iput+0x6f>
      bfree(ip->dev, ip->addrs[i]);
      ip->addrs[i] = 0;
    }
  }
  
  if(ip->addrs[NDIRECT]){
  10182a:	8b 46 4c             	mov    0x4c(%esi),%eax
  10182d:	85 c0                	test   %eax,%eax
  10182f:	75 5f                	jne    101890 <iput+0xf0>
    bfree(ip->dev, ip->addrs[NDIRECT]);
    ip->addrs[NDIRECT] = 0;
  }

  ip->size = 0;
  iupdate(ip);
  101831:	83 ec 0c             	sub    $0xc,%esp
    brelse(bp);
    bfree(ip->dev, ip->addrs[NDIRECT]);
    ip->addrs[NDIRECT] = 0;
  }

  ip->size = 0;
  101834:	c7 46 18 00 00 00 00 	movl   $0x0,0x18(%esi)
  iupdate(ip);
  10183b:	56                   	push   %esi
  10183c:	e8 df fe ff ff       	call   101720 <iupdate>
    if(ip->flags & I_BUSY)
      panic("iput busy");
    ip->flags |= I_BUSY;
    release(&icache.lock);
    itrunc(ip);
    ip->type = 0;
  101841:	31 c0                	xor    %eax,%eax
  101843:	66 89 46 10          	mov    %ax,0x10(%esi)
    iupdate(ip);
  101847:	89 34 24             	mov    %esi,(%esp)
  10184a:	e8 d1 fe ff ff       	call   101720 <iupdate>
    acquire(&icache.lock);
  10184f:	c7 04 24 c0 ba 10 00 	movl   $0x10bac0,(%esp)
  101856:	e8 e5 24 00 00       	call   103d40 <acquire>
    ip->flags = 0;
  10185b:	c7 46 0c 00 00 00 00 	movl   $0x0,0xc(%esi)
    wakeup(ip);
  101862:	89 34 24             	mov    %esi,(%esp)
  101865:	e8 e6 20 00 00       	call   103950 <wakeup>
  10186a:	8b 46 08             	mov    0x8(%esi),%eax
  10186d:	83 c4 10             	add    $0x10,%esp
  }
  ip->ref--;
  101870:	83 e8 01             	sub    $0x1,%eax
  101873:	89 46 08             	mov    %eax,0x8(%esi)
  release(&icache.lock);
  101876:	c7 44 24 20 c0 ba 10 	movl   $0x10bac0,0x20(%esp)
  10187d:	00 
}
  10187e:	83 c4 0c             	add    $0xc,%esp
  101881:	5b                   	pop    %ebx
  101882:	5e                   	pop    %esi
  101883:	5f                   	pop    %edi
  101884:	5d                   	pop    %ebp
    acquire(&icache.lock);
    ip->flags = 0;
    wakeup(ip);
  }
  ip->ref--;
  release(&icache.lock);
  101885:	e9 96 26 00 00       	jmp    103f20 <release>
  10188a:	8d b6 00 00 00 00    	lea    0x0(%esi),%esi
      ip->addrs[i] = 0;
    }
  }
  
  if(ip->addrs[NDIRECT]){
    bp = bread(ip->dev, ip->addrs[NDIRECT]);
  101890:	83 ec 08             	sub    $0x8,%esp
  101893:	50                   	push   %eax
  101894:	ff 36                	pushl  (%esi)
  101896:	e8 25 e9 ff ff       	call   1001c0 <bread>
  10189b:	83 c4 10             	add    $0x10,%esp
  10189e:	89 c7                	mov    %eax,%edi
    a = (uint*)bp->data;
  1018a0:	8d 58 18             	lea    0x18(%eax),%ebx
  1018a3:	8d a8 18 02 00 00    	lea    0x218(%eax),%ebp
  1018a9:	eb 0c                	jmp    1018b7 <iput+0x117>
  1018ab:	90                   	nop
  1018ac:	8d 74 26 00          	lea    0x0(%esi,%eiz,1),%esi
  1018b0:	83 c3 04             	add    $0x4,%ebx
    for(j = 0; j < NINDIRECT; j++){
  1018b3:	39 dd                	cmp    %ebx,%ebp
  1018b5:	74 0f                	je     1018c6 <iput+0x126>
      if(a[j])
  1018b7:	8b 13                	mov    (%ebx),%edx
  1018b9:	85 d2                	test   %edx,%edx
  1018bb:	74 f3                	je     1018b0 <iput+0x110>
        bfree(ip->dev, a[j]);
  1018bd:	8b 06                	mov    (%esi),%eax
  1018bf:	e8 7c fa ff ff       	call   101340 <bfree>
  1018c4:	eb ea                	jmp    1018b0 <iput+0x110>
    }
    brelse(bp);
  1018c6:	83 ec 0c             	sub    $0xc,%esp
  1018c9:	57                   	push   %edi
  1018ca:	e8 01 ea ff ff       	call   1002d0 <brelse>
    bfree(ip->dev, ip->addrs[NDIRECT]);
  1018cf:	8b 56 4c             	mov    0x4c(%esi),%edx
  1018d2:	8b 06                	mov    (%esi),%eax
  1018d4:	e8 67 fa ff ff       	call   101340 <bfree>
    ip->addrs[NDIRECT] = 0;
  1018d9:	c7 46 4c 00 00 00 00 	movl   $0x0,0x4c(%esi)
  1018e0:	83 c4 10             	add    $0x10,%esp
  1018e3:	e9 49 ff ff ff       	jmp    101831 <iput+0x91>
{
  acquire(&icache.lock);
  if(ip->ref == 1 && (ip->flags & I_VALID) && ip->nlink == 0){
    // inode is no longer used: truncate and free inode.
    if(ip->flags & I_BUSY)
      panic("iput busy");
  1018e8:	83 ec 0c             	sub    $0xc,%esp
  1018eb:	68 af 60 10 00       	push   $0x1060af
  1018f0:	e8 2b f1 ff ff       	call   100a20 <panic>
  1018f5:	8d 74 26 00          	lea    0x0(%esi,%eiz,1),%esi
  1018f9:	8d bc 27 00 00 00 00 	lea    0x0(%edi,%eiz,1),%edi

00101900 <iunlockput>:
}

// Common idiom: unlock, then put.
void
iunlockput(struct inode *ip)
{
  101900:	53                   	push   %ebx
  101901:	83 ec 14             	sub    $0x14,%esp
  101904:	8b 5c 24 1c          	mov    0x1c(%esp),%ebx
  iunlock(ip);
  101908:	53                   	push   %ebx
  101909:	e8 02 fd ff ff       	call   101610 <iunlock>
  iput(ip);
  10190e:	89 5c 24 20          	mov    %ebx,0x20(%esp)
}
  101912:	83 c4 18             	add    $0x18,%esp
  101915:	5b                   	pop    %ebx
// Common idiom: unlock, then put.
void
iunlockput(struct inode *ip)
{
  iunlock(ip);
  iput(ip);
  101916:	e9 85 fe ff ff       	jmp    1017a0 <iput>
  10191b:	90                   	nop
  10191c:	8d 74 26 00          	lea    0x0(%esi,%eiz,1),%esi

00101920 <stati>:
}

// Copy stat information from inode.
void
stati(struct inode *ip, struct statv6 *st)
{
  101920:	8b 54 24 04          	mov    0x4(%esp),%edx
  101924:	8b 44 24 08          	mov    0x8(%esp),%eax
  st->dev = ip->dev;
  101928:	8b 0a                	mov    (%edx),%ecx
  10192a:	89 48 04             	mov    %ecx,0x4(%eax)
  st->ino = ip->inum;
  10192d:	8b 4a 04             	mov    0x4(%edx),%ecx
  101930:	89 48 08             	mov    %ecx,0x8(%eax)
  st->type = ip->type;
  101933:	0f b7 4a 10          	movzwl 0x10(%edx),%ecx
  101937:	66 89 08             	mov    %cx,(%eax)
  st->nlink = ip->nlink;
  10193a:	0f b7 4a 16          	movzwl 0x16(%edx),%ecx
  st->size = ip->size;
  10193e:	8b 52 18             	mov    0x18(%edx),%edx
stati(struct inode *ip, struct statv6 *st)
{
  st->dev = ip->dev;
  st->ino = ip->inum;
  st->type = ip->type;
  st->nlink = ip->nlink;
  101941:	66 89 48 0c          	mov    %cx,0xc(%eax)
  st->size = ip->size;
  101945:	89 50 10             	mov    %edx,0x10(%eax)
  101948:	c3                   	ret    
  101949:	8d b4 26 00 00 00 00 	lea    0x0(%esi,%eiz,1),%esi

00101950 <readi>:

//PAGEBREAK!
// Read data from inode.
int
readi(struct inode *ip, char *dst, uint off, uint n)
{
  101950:	55                   	push   %ebp
  101951:	57                   	push   %edi
  101952:	56                   	push   %esi
  101953:	53                   	push   %ebx
  101954:	83 ec 1c             	sub    $0x1c,%esp
  101957:	8b 44 24 30          	mov    0x30(%esp),%eax
  10195b:	8b 7c 24 3c          	mov    0x3c(%esp),%edi
  10195f:	8b 6c 24 34          	mov    0x34(%esp),%ebp
  101963:	8b 74 24 38          	mov    0x38(%esp),%esi
  uint tot, m;
  struct buf *bp;

  if(ip->type == T_DEV){
  101967:	66 83 78 10 03       	cmpw   $0x3,0x10(%eax)

//PAGEBREAK!
// Read data from inode.
int
readi(struct inode *ip, char *dst, uint off, uint n)
{
  10196c:	89 44 24 0c          	mov    %eax,0xc(%esp)
  101970:	89 7c 24 04          	mov    %edi,0x4(%esp)
  uint tot, m;
  struct buf *bp;

  if(ip->type == T_DEV){
  101974:	0f 84 ae 00 00 00    	je     101a28 <readi+0xd8>
    if(ip->major < 0 || ip->major >= NDEV || !devsw[ip->major].read)
      return -1;
    return devsw[ip->major].read(ip, dst, n);
  }

  if(off > ip->size || off + n < off)
  10197a:	8b 44 24 0c          	mov    0xc(%esp),%eax
  10197e:	8b 40 18             	mov    0x18(%eax),%eax
  101981:	39 f0                	cmp    %esi,%eax
  101983:	0f 82 c7 00 00 00    	jb     101a50 <readi+0x100>
  101989:	8b 7c 24 04          	mov    0x4(%esp),%edi
  10198d:	89 fa                	mov    %edi,%edx
  10198f:	01 f2                	add    %esi,%edx
  101991:	0f 82 b9 00 00 00    	jb     101a50 <readi+0x100>
    return -1;
  if(off + n > ip->size)
    n = ip->size - off;
  101997:	89 c1                	mov    %eax,%ecx
  101999:	29 f1                	sub    %esi,%ecx
  10199b:	39 d0                	cmp    %edx,%eax
  10199d:	0f 43 cf             	cmovae %edi,%ecx

  for(tot=0; tot<n; tot+=m, off+=m, dst+=m){
  1019a0:	31 ff                	xor    %edi,%edi
  1019a2:	85 c9                	test   %ecx,%ecx
  }

  if(off > ip->size || off + n < off)
    return -1;
  if(off + n > ip->size)
    n = ip->size - off;
  1019a4:	89 4c 24 04          	mov    %ecx,0x4(%esp)

  for(tot=0; tot<n; tot+=m, off+=m, dst+=m){
  1019a8:	74 6b                	je     101a15 <readi+0xc5>
  1019aa:	8d b6 00 00 00 00    	lea    0x0(%esi),%esi
    bp = bread(ip->dev, bmap(ip, off/BSIZE));
  1019b0:	8b 5c 24 0c          	mov    0xc(%esp),%ebx
  1019b4:	89 f2                	mov    %esi,%edx
  1019b6:	c1 ea 09             	shr    $0x9,%edx
  1019b9:	89 d8                	mov    %ebx,%eax
  1019bb:	e8 30 fa ff ff       	call   1013f0 <bmap>
  1019c0:	83 ec 08             	sub    $0x8,%esp
  1019c3:	50                   	push   %eax
  1019c4:	ff 33                	pushl  (%ebx)
    m = min(n - tot, BSIZE - off%BSIZE);
  1019c6:	bb 00 02 00 00       	mov    $0x200,%ebx
    return -1;
  if(off + n > ip->size)
    n = ip->size - off;

  for(tot=0; tot<n; tot+=m, off+=m, dst+=m){
    bp = bread(ip->dev, bmap(ip, off/BSIZE));
  1019cb:	e8 f0 e7 ff ff       	call   1001c0 <bread>
  1019d0:	89 c2                	mov    %eax,%edx
    m = min(n - tot, BSIZE - off%BSIZE);
  1019d2:	8b 44 24 14          	mov    0x14(%esp),%eax
  1019d6:	89 f1                	mov    %esi,%ecx
  1019d8:	81 e1 ff 01 00 00    	and    $0x1ff,%ecx
  1019de:	83 c4 0c             	add    $0xc,%esp
  1019e1:	29 cb                	sub    %ecx,%ebx
  1019e3:	29 f8                	sub    %edi,%eax
  1019e5:	39 c3                	cmp    %eax,%ebx
  1019e7:	0f 47 d8             	cmova  %eax,%ebx
    memmove(dst, bp->data + off%BSIZE, m);
  1019ea:	8d 44 0a 18          	lea    0x18(%edx,%ecx,1),%eax
  1019ee:	53                   	push   %ebx
  if(off > ip->size || off + n < off)
    return -1;
  if(off + n > ip->size)
    n = ip->size - off;

  for(tot=0; tot<n; tot+=m, off+=m, dst+=m){
  1019ef:	01 df                	add    %ebx,%edi
  1019f1:	01 de                	add    %ebx,%esi
    bp = bread(ip->dev, bmap(ip, off/BSIZE));
    m = min(n - tot, BSIZE - off%BSIZE);
    memmove(dst, bp->data + off%BSIZE, m);
  1019f3:	89 54 24 10          	mov    %edx,0x10(%esp)
  1019f7:	50                   	push   %eax
  1019f8:	55                   	push   %ebp
  if(off > ip->size || off + n < off)
    return -1;
  if(off + n > ip->size)
    n = ip->size - off;

  for(tot=0; tot<n; tot+=m, off+=m, dst+=m){
  1019f9:	01 dd                	add    %ebx,%ebp
    bp = bread(ip->dev, bmap(ip, off/BSIZE));
    m = min(n - tot, BSIZE - off%BSIZE);
    memmove(dst, bp->data + off%BSIZE, m);
  1019fb:	e8 f0 25 00 00       	call   103ff0 <memmove>
    brelse(bp);
  101a00:	8b 54 24 18          	mov    0x18(%esp),%edx
  101a04:	89 14 24             	mov    %edx,(%esp)
  101a07:	e8 c4 e8 ff ff       	call   1002d0 <brelse>
  if(off > ip->size || off + n < off)
    return -1;
  if(off + n > ip->size)
    n = ip->size - off;

  for(tot=0; tot<n; tot+=m, off+=m, dst+=m){
  101a0c:	83 c4 10             	add    $0x10,%esp
  101a0f:	39 7c 24 04          	cmp    %edi,0x4(%esp)
  101a13:	77 9b                	ja     1019b0 <readi+0x60>
    bp = bread(ip->dev, bmap(ip, off/BSIZE));
    m = min(n - tot, BSIZE - off%BSIZE);
    memmove(dst, bp->data + off%BSIZE, m);
    brelse(bp);
  }
  return n;
  101a15:	8b 44 24 04          	mov    0x4(%esp),%eax
}
  101a19:	83 c4 1c             	add    $0x1c,%esp
  101a1c:	5b                   	pop    %ebx
  101a1d:	5e                   	pop    %esi
  101a1e:	5f                   	pop    %edi
  101a1f:	5d                   	pop    %ebp
  101a20:	c3                   	ret    
  101a21:	8d b4 26 00 00 00 00 	lea    0x0(%esi,%eiz,1),%esi
{
  uint tot, m;
  struct buf *bp;

  if(ip->type == T_DEV){
    if(ip->major < 0 || ip->major >= NDEV || !devsw[ip->major].read)
  101a28:	0f bf 40 12          	movswl 0x12(%eax),%eax
  101a2c:	66 83 f8 09          	cmp    $0x9,%ax
  101a30:	77 1e                	ja     101a50 <readi+0x100>
  101a32:	8d 04 40             	lea    (%eax,%eax,2),%eax
  101a35:	8b 04 85 40 ba 10 00 	mov    0x10ba40(,%eax,4),%eax
  101a3c:	85 c0                	test   %eax,%eax
  101a3e:	74 10                	je     101a50 <readi+0x100>
      return -1;
    return devsw[ip->major].read(ip, dst, n);
  101a40:	89 7c 24 38          	mov    %edi,0x38(%esp)
    m = min(n - tot, BSIZE - off%BSIZE);
    memmove(dst, bp->data + off%BSIZE, m);
    brelse(bp);
  }
  return n;
}
  101a44:	83 c4 1c             	add    $0x1c,%esp
  101a47:	5b                   	pop    %ebx
  101a48:	5e                   	pop    %esi
  101a49:	5f                   	pop    %edi
  101a4a:	5d                   	pop    %ebp
  struct buf *bp;

  if(ip->type == T_DEV){
    if(ip->major < 0 || ip->major >= NDEV || !devsw[ip->major].read)
      return -1;
    return devsw[ip->major].read(ip, dst, n);
  101a4b:	ff e0                	jmp    *%eax
  101a4d:	8d 76 00             	lea    0x0(%esi),%esi
  uint tot, m;
  struct buf *bp;

  if(ip->type == T_DEV){
    if(ip->major < 0 || ip->major >= NDEV || !devsw[ip->major].read)
      return -1;
  101a50:	b8 ff ff ff ff       	mov    $0xffffffff,%eax
  101a55:	eb c2                	jmp    101a19 <readi+0xc9>
  101a57:	89 f6                	mov    %esi,%esi
  101a59:	8d bc 27 00 00 00 00 	lea    0x0(%edi,%eiz,1),%edi

00101a60 <writei>:

// PAGEBREAK!
// Write data to inode.
int
writei(struct inode *ip, char *src, uint off, uint n)
{
  101a60:	55                   	push   %ebp
  101a61:	57                   	push   %edi
  101a62:	56                   	push   %esi
  101a63:	53                   	push   %ebx
  101a64:	83 ec 1c             	sub    $0x1c,%esp
  101a67:	8b 44 24 30          	mov    0x30(%esp),%eax
  101a6b:	8b 7c 24 34          	mov    0x34(%esp),%edi
  101a6f:	8b 74 24 38          	mov    0x38(%esp),%esi
  uint tot, m;
  struct buf *bp;

  if(ip->type == T_DEV){
  101a73:	66 83 78 10 03       	cmpw   $0x3,0x10(%eax)

// PAGEBREAK!
// Write data to inode.
int
writei(struct inode *ip, char *src, uint off, uint n)
{
  101a78:	89 7c 24 08          	mov    %edi,0x8(%esp)
  101a7c:	8b 7c 24 3c          	mov    0x3c(%esp),%edi
  101a80:	89 44 24 0c          	mov    %eax,0xc(%esp)
  101a84:	89 7c 24 04          	mov    %edi,0x4(%esp)
  uint tot, m;
  struct buf *bp;

  if(ip->type == T_DEV){
  101a88:	0f 84 c2 00 00 00    	je     101b50 <writei+0xf0>
    if(ip->major < 0 || ip->major >= NDEV || !devsw[ip->major].write)
      return -1;
    return devsw[ip->major].write(ip, src, n);
  }

  if(off > ip->size || off + n < off)
  101a8e:	8b 44 24 0c          	mov    0xc(%esp),%eax
  101a92:	39 70 18             	cmp    %esi,0x18(%eax)
  101a95:	0f 82 f5 00 00 00    	jb     101b90 <writei+0x130>
  101a9b:	8b 44 24 04          	mov    0x4(%esp),%eax
  101a9f:	01 f0                	add    %esi,%eax
  101aa1:	0f 82 e9 00 00 00    	jb     101b90 <writei+0x130>
    return -1;
  if(off + n > MAXFILE*BSIZE)
  101aa7:	3d 00 18 01 00       	cmp    $0x11800,%eax
  101aac:	0f 87 8e 00 00 00    	ja     101b40 <writei+0xe0>
    n = MAXFILE*BSIZE - off;

  for(tot=0; tot<n; tot+=m, off+=m, src+=m){
  101ab2:	8b 44 24 04          	mov    0x4(%esp),%eax
  101ab6:	31 ff                	xor    %edi,%edi
  101ab8:	85 c0                	test   %eax,%eax
  101aba:	74 77                	je     101b33 <writei+0xd3>
  101abc:	8d 74 26 00          	lea    0x0(%esi,%eiz,1),%esi
    bp = bread(ip->dev, bmap(ip, off/BSIZE));
  101ac0:	8b 5c 24 0c          	mov    0xc(%esp),%ebx
  101ac4:	89 f2                	mov    %esi,%edx
  101ac6:	c1 ea 09             	shr    $0x9,%edx
  101ac9:	89 d8                	mov    %ebx,%eax
  101acb:	e8 20 f9 ff ff       	call   1013f0 <bmap>
  101ad0:	83 ec 08             	sub    $0x8,%esp
  101ad3:	50                   	push   %eax
  101ad4:	ff 33                	pushl  (%ebx)
    m = min(n - tot, BSIZE - off%BSIZE);
  101ad6:	bb 00 02 00 00       	mov    $0x200,%ebx
    return -1;
  if(off + n > MAXFILE*BSIZE)
    n = MAXFILE*BSIZE - off;

  for(tot=0; tot<n; tot+=m, off+=m, src+=m){
    bp = bread(ip->dev, bmap(ip, off/BSIZE));
  101adb:	e8 e0 e6 ff ff       	call   1001c0 <bread>
  101ae0:	89 c5                	mov    %eax,%ebp
    m = min(n - tot, BSIZE - off%BSIZE);
  101ae2:	8b 44 24 14          	mov    0x14(%esp),%eax
  101ae6:	89 f1                	mov    %esi,%ecx
  101ae8:	81 e1 ff 01 00 00    	and    $0x1ff,%ecx
  101aee:	83 c4 0c             	add    $0xc,%esp
  101af1:	29 cb                	sub    %ecx,%ebx
  101af3:	29 f8                	sub    %edi,%eax
  101af5:	39 c3                	cmp    %eax,%ebx
  101af7:	0f 47 d8             	cmova  %eax,%ebx
    memmove(bp->data + off%BSIZE, src, m);
  101afa:	8d 44 0d 18          	lea    0x18(%ebp,%ecx,1),%eax
  101afe:	53                   	push   %ebx
  101aff:	ff 74 24 10          	pushl  0x10(%esp)
  if(off > ip->size || off + n < off)
    return -1;
  if(off + n > MAXFILE*BSIZE)
    n = MAXFILE*BSIZE - off;

  for(tot=0; tot<n; tot+=m, off+=m, src+=m){
  101b03:	01 df                	add    %ebx,%edi
    bp = bread(ip->dev, bmap(ip, off/BSIZE));
    m = min(n - tot, BSIZE - off%BSIZE);
    memmove(bp->data + off%BSIZE, src, m);
  101b05:	50                   	push   %eax
  if(off > ip->size || off + n < off)
    return -1;
  if(off + n > MAXFILE*BSIZE)
    n = MAXFILE*BSIZE - off;

  for(tot=0; tot<n; tot+=m, off+=m, src+=m){
  101b06:	01 de                	add    %ebx,%esi
    bp = bread(ip->dev, bmap(ip, off/BSIZE));
    m = min(n - tot, BSIZE - off%BSIZE);
    memmove(bp->data + off%BSIZE, src, m);
  101b08:	e8 e3 24 00 00       	call   103ff0 <memmove>
    bwrite(bp);
  101b0d:	89 2c 24             	mov    %ebp,(%esp)
  101b10:	e8 8b e7 ff ff       	call   1002a0 <bwrite>
    brelse(bp);
  101b15:	89 2c 24             	mov    %ebp,(%esp)
  101b18:	e8 b3 e7 ff ff       	call   1002d0 <brelse>
  if(off > ip->size || off + n < off)
    return -1;
  if(off + n > MAXFILE*BSIZE)
    n = MAXFILE*BSIZE - off;

  for(tot=0; tot<n; tot+=m, off+=m, src+=m){
  101b1d:	01 5c 24 18          	add    %ebx,0x18(%esp)
  101b21:	83 c4 10             	add    $0x10,%esp
  101b24:	39 7c 24 04          	cmp    %edi,0x4(%esp)
  101b28:	77 96                	ja     101ac0 <writei+0x60>
    memmove(bp->data + off%BSIZE, src, m);
    bwrite(bp);
    brelse(bp);
  }

  if(n > 0 && off > ip->size){
  101b2a:	8b 44 24 0c          	mov    0xc(%esp),%eax
  101b2e:	3b 70 18             	cmp    0x18(%eax),%esi
  101b31:	77 45                	ja     101b78 <writei+0x118>
    ip->size = off;
    iupdate(ip);
  }
  return n;
  101b33:	8b 44 24 04          	mov    0x4(%esp),%eax
}
  101b37:	83 c4 1c             	add    $0x1c,%esp
  101b3a:	5b                   	pop    %ebx
  101b3b:	5e                   	pop    %esi
  101b3c:	5f                   	pop    %edi
  101b3d:	5d                   	pop    %ebp
  101b3e:	c3                   	ret    
  101b3f:	90                   	nop
  }

  if(off > ip->size || off + n < off)
    return -1;
  if(off + n > MAXFILE*BSIZE)
    n = MAXFILE*BSIZE - off;
  101b40:	b8 00 18 01 00       	mov    $0x11800,%eax
  101b45:	29 f0                	sub    %esi,%eax
  101b47:	89 44 24 04          	mov    %eax,0x4(%esp)
  101b4b:	e9 62 ff ff ff       	jmp    101ab2 <writei+0x52>
{
  uint tot, m;
  struct buf *bp;

  if(ip->type == T_DEV){
    if(ip->major < 0 || ip->major >= NDEV || !devsw[ip->major].write)
  101b50:	0f bf 40 12          	movswl 0x12(%eax),%eax
  101b54:	66 83 f8 09          	cmp    $0x9,%ax
  101b58:	77 36                	ja     101b90 <writei+0x130>
  101b5a:	8d 04 40             	lea    (%eax,%eax,2),%eax
  101b5d:	8b 04 85 44 ba 10 00 	mov    0x10ba44(,%eax,4),%eax
  101b64:	85 c0                	test   %eax,%eax
  101b66:	74 28                	je     101b90 <writei+0x130>
      return -1;
    return devsw[ip->major].write(ip, src, n);
  101b68:	89 7c 24 38          	mov    %edi,0x38(%esp)
  if(n > 0 && off > ip->size){
    ip->size = off;
    iupdate(ip);
  }
  return n;
}
  101b6c:	83 c4 1c             	add    $0x1c,%esp
  101b6f:	5b                   	pop    %ebx
  101b70:	5e                   	pop    %esi
  101b71:	5f                   	pop    %edi
  101b72:	5d                   	pop    %ebp
  struct buf *bp;

  if(ip->type == T_DEV){
    if(ip->major < 0 || ip->major >= NDEV || !devsw[ip->major].write)
      return -1;
    return devsw[ip->major].write(ip, src, n);
  101b73:	ff e0                	jmp    *%eax
  101b75:	8d 76 00             	lea    0x0(%esi),%esi
    bwrite(bp);
    brelse(bp);
  }

  if(n > 0 && off > ip->size){
    ip->size = off;
  101b78:	8b 44 24 0c          	mov    0xc(%esp),%eax
    iupdate(ip);
  101b7c:	83 ec 0c             	sub    $0xc,%esp
    bwrite(bp);
    brelse(bp);
  }

  if(n > 0 && off > ip->size){
    ip->size = off;
  101b7f:	89 70 18             	mov    %esi,0x18(%eax)
    iupdate(ip);
  101b82:	50                   	push   %eax
  101b83:	e8 98 fb ff ff       	call   101720 <iupdate>
  101b88:	83 c4 10             	add    $0x10,%esp
  101b8b:	eb a6                	jmp    101b33 <writei+0xd3>
  101b8d:	8d 76 00             	lea    0x0(%esi),%esi
  uint tot, m;
  struct buf *bp;

  if(ip->type == T_DEV){
    if(ip->major < 0 || ip->major >= NDEV || !devsw[ip->major].write)
      return -1;
  101b90:	b8 ff ff ff ff       	mov    $0xffffffff,%eax
  101b95:	eb a0                	jmp    101b37 <writei+0xd7>
  101b97:	89 f6                	mov    %esi,%esi
  101b99:	8d bc 27 00 00 00 00 	lea    0x0(%edi,%eiz,1),%edi

00101ba0 <namecmp>:
//PAGEBREAK!
// Directories

int
namecmp(const char *s, const char *t)
{
  101ba0:	83 ec 10             	sub    $0x10,%esp
  return strncmp(s, t, DIRSIZ);
  101ba3:	6a 0e                	push   $0xe
  101ba5:	ff 74 24 1c          	pushl  0x1c(%esp)
  101ba9:	ff 74 24 1c          	pushl  0x1c(%esp)
  101bad:	e8 ae 24 00 00       	call   104060 <strncmp>
}
  101bb2:	83 c4 1c             	add    $0x1c,%esp
  101bb5:	c3                   	ret    
  101bb6:	8d 76 00             	lea    0x0(%esi),%esi
  101bb9:	8d bc 27 00 00 00 00 	lea    0x0(%edi,%eiz,1),%edi

00101bc0 <dirlookup>:
// Look for a directory entry in a directory.
// If found, set *poff to byte offset of entry.
// Caller must have already locked dp.
struct inode*
dirlookup(struct inode *dp, char *name, uint *poff)
{
  101bc0:	55                   	push   %ebp
  101bc1:	57                   	push   %edi
  101bc2:	56                   	push   %esi
  101bc3:	53                   	push   %ebx
  101bc4:	83 ec 1c             	sub    $0x1c,%esp
  101bc7:	8b 44 24 30          	mov    0x30(%esp),%eax
  101bcb:	8b 4c 24 38          	mov    0x38(%esp),%ecx
  101bcf:	8b 5c 24 34          	mov    0x34(%esp),%ebx
  uint off, inum;
  struct buf *bp;
  struct dirent *de;

  if(dp->type != T_DIR)
  101bd3:	66 83 78 10 01       	cmpw   $0x1,0x10(%eax)
// Look for a directory entry in a directory.
// If found, set *poff to byte offset of entry.
// Caller must have already locked dp.
struct inode*
dirlookup(struct inode *dp, char *name, uint *poff)
{
  101bd8:	89 44 24 04          	mov    %eax,0x4(%esp)
  101bdc:	89 4c 24 0c          	mov    %ecx,0xc(%esp)
  uint off, inum;
  struct buf *bp;
  struct dirent *de;

  if(dp->type != T_DIR)
  101be0:	0f 85 d9 00 00 00    	jne    101cbf <dirlookup+0xff>
    panic("dirlookup not DIR");

  for(off = 0; off < dp->size; off += BSIZE){
  101be6:	8b 40 18             	mov    0x18(%eax),%eax
  101be9:	c7 04 24 00 00 00 00 	movl   $0x0,(%esp)
  101bf0:	85 c0                	test   %eax,%eax
  101bf2:	0f 84 bd 00 00 00    	je     101cb5 <dirlookup+0xf5>
    bp = bread(dp->dev, bmap(dp, off / BSIZE));
  101bf8:	8b 7c 24 04          	mov    0x4(%esp),%edi
  101bfc:	8b 14 24             	mov    (%esp),%edx
  101bff:	89 f8                	mov    %edi,%eax
  101c01:	c1 ea 09             	shr    $0x9,%edx
  101c04:	e8 e7 f7 ff ff       	call   1013f0 <bmap>
  101c09:	83 ec 08             	sub    $0x8,%esp
  101c0c:	50                   	push   %eax
  101c0d:	ff 37                	pushl  (%edi)
  101c0f:	e8 ac e5 ff ff       	call   1001c0 <bread>
  101c14:	89 c7                	mov    %eax,%edi
    for(de = (struct dirent*)bp->data;
  101c16:	8d 40 18             	lea    0x18(%eax),%eax
        de < (struct dirent*)(bp->data + BSIZE);
  101c19:	8d af 18 02 00 00    	lea    0x218(%edi),%ebp
  if(dp->type != T_DIR)
    panic("dirlookup not DIR");

  for(off = 0; off < dp->size; off += BSIZE){
    bp = bread(dp->dev, bmap(dp, off / BSIZE));
    for(de = (struct dirent*)bp->data;
  101c1f:	89 44 24 18          	mov    %eax,0x18(%esp)
  101c23:	83 c4 10             	add    $0x10,%esp
  101c26:	89 c6                	mov    %eax,%esi
  101c28:	39 e8                	cmp    %ebp,%eax
  101c2a:	72 0b                	jb     101c37 <dirlookup+0x77>
  101c2c:	eb 62                	jmp    101c90 <dirlookup+0xd0>
  101c2e:	66 90                	xchg   %ax,%ax
        de < (struct dirent*)(bp->data + BSIZE);
        de++){
  101c30:	83 c6 10             	add    $0x10,%esi
  if(dp->type != T_DIR)
    panic("dirlookup not DIR");

  for(off = 0; off < dp->size; off += BSIZE){
    bp = bread(dp->dev, bmap(dp, off / BSIZE));
    for(de = (struct dirent*)bp->data;
  101c33:	39 ee                	cmp    %ebp,%esi
  101c35:	73 59                	jae    101c90 <dirlookup+0xd0>
        de < (struct dirent*)(bp->data + BSIZE);
        de++){
      if(de->inum == 0)
  101c37:	66 83 3e 00          	cmpw   $0x0,(%esi)
  101c3b:	74 f3                	je     101c30 <dirlookup+0x70>
// Directories

int
namecmp(const char *s, const char *t)
{
  return strncmp(s, t, DIRSIZ);
  101c3d:	8d 46 02             	lea    0x2(%esi),%eax
  101c40:	83 ec 04             	sub    $0x4,%esp
  101c43:	6a 0e                	push   $0xe
  101c45:	50                   	push   %eax
  101c46:	53                   	push   %ebx
  101c47:	e8 14 24 00 00       	call   104060 <strncmp>
    for(de = (struct dirent*)bp->data;
        de < (struct dirent*)(bp->data + BSIZE);
        de++){
      if(de->inum == 0)
        continue;
      if(namecmp(name, de->name) == 0){
  101c4c:	83 c4 10             	add    $0x10,%esp
  101c4f:	85 c0                	test   %eax,%eax
  101c51:	75 dd                	jne    101c30 <dirlookup+0x70>
        // entry matches path element
        if(poff)
  101c53:	8b 44 24 0c          	mov    0xc(%esp),%eax
  101c57:	89 f5                	mov    %esi,%ebp
  101c59:	85 c0                	test   %eax,%eax
  101c5b:	74 0b                	je     101c68 <dirlookup+0xa8>
          *poff = off + (uchar*)de - bp->data;
  101c5d:	8b 34 24             	mov    (%esp),%esi
  101c60:	01 ee                	add    %ebp,%esi
  101c62:	2b 74 24 08          	sub    0x8(%esp),%esi
  101c66:	89 30                	mov    %esi,(%eax)
        inum = de->inum;
        brelse(bp);
  101c68:	83 ec 0c             	sub    $0xc,%esp
        continue;
      if(namecmp(name, de->name) == 0){
        // entry matches path element
        if(poff)
          *poff = off + (uchar*)de - bp->data;
        inum = de->inum;
  101c6b:	0f b7 5d 00          	movzwl 0x0(%ebp),%ebx
        brelse(bp);
  101c6f:	57                   	push   %edi
  101c70:	e8 5b e6 ff ff       	call   1002d0 <brelse>
        return iget(dp->dev, inum);
  101c75:	8b 44 24 14          	mov    0x14(%esp),%eax
  101c79:	89 da                	mov    %ebx,%edx
  101c7b:	8b 00                	mov    (%eax),%eax
      }
    }
    brelse(bp);
  }
  return 0;
}
  101c7d:	83 c4 2c             	add    $0x2c,%esp
  101c80:	5b                   	pop    %ebx
  101c81:	5e                   	pop    %esi
  101c82:	5f                   	pop    %edi
  101c83:	5d                   	pop    %ebp
        // entry matches path element
        if(poff)
          *poff = off + (uchar*)de - bp->data;
        inum = de->inum;
        brelse(bp);
        return iget(dp->dev, inum);
  101c84:	e9 f7 f4 ff ff       	jmp    101180 <iget>
  101c89:	8d b4 26 00 00 00 00 	lea    0x0(%esi,%eiz,1),%esi
      }
    }
    brelse(bp);
  101c90:	83 ec 0c             	sub    $0xc,%esp
  101c93:	57                   	push   %edi
  101c94:	e8 37 e6 ff ff       	call   1002d0 <brelse>
  struct dirent *de;

  if(dp->type != T_DIR)
    panic("dirlookup not DIR");

  for(off = 0; off < dp->size; off += BSIZE){
  101c99:	81 44 24 10 00 02 00 	addl   $0x200,0x10(%esp)
  101ca0:	00 
  101ca1:	8b 44 24 10          	mov    0x10(%esp),%eax
  101ca5:	83 c4 10             	add    $0x10,%esp
  101ca8:	8b 4c 24 04          	mov    0x4(%esp),%ecx
  101cac:	39 41 18             	cmp    %eax,0x18(%ecx)
  101caf:	0f 87 43 ff ff ff    	ja     101bf8 <dirlookup+0x38>
      }
    }
    brelse(bp);
  }
  return 0;
}
  101cb5:	83 c4 1c             	add    $0x1c,%esp
  101cb8:	31 c0                	xor    %eax,%eax
  101cba:	5b                   	pop    %ebx
  101cbb:	5e                   	pop    %esi
  101cbc:	5f                   	pop    %edi
  101cbd:	5d                   	pop    %ebp
  101cbe:	c3                   	ret    
  uint off, inum;
  struct buf *bp;
  struct dirent *de;

  if(dp->type != T_DIR)
    panic("dirlookup not DIR");
  101cbf:	83 ec 0c             	sub    $0xc,%esp
  101cc2:	68 b9 60 10 00       	push   $0x1060b9
  101cc7:	e8 54 ed ff ff       	call   100a20 <panic>
  101ccc:	8d 74 26 00          	lea    0x0(%esi,%eiz,1),%esi

00101cd0 <namex>:
// Look up and return the inode for a path name.
// If parent != 0, return the inode for the parent and copy the final
// path element into name, which must have room for DIRSIZ bytes.
static struct inode*
namex(char *path, int parent, char *name)
{
  101cd0:	55                   	push   %ebp
  101cd1:	57                   	push   %edi
  101cd2:	89 cf                	mov    %ecx,%edi
  101cd4:	56                   	push   %esi
  101cd5:	53                   	push   %ebx
  101cd6:	89 c3                	mov    %eax,%ebx
  101cd8:	83 ec 1c             	sub    $0x1c,%esp
  struct inode *ip, *next;

  if(*path == '/')
  101cdb:	80 38 2f             	cmpb   $0x2f,(%eax)
// Look up and return the inode for a path name.
// If parent != 0, return the inode for the parent and copy the final
// path element into name, which must have room for DIRSIZ bytes.
static struct inode*
namex(char *path, int parent, char *name)
{
  101cde:	89 54 24 08          	mov    %edx,0x8(%esp)
  struct inode *ip, *next;

  if(*path == '/')
  101ce2:	0f 84 39 01 00 00    	je     101e21 <namex+0x151>
    ip = iget(ROOTDEV, ROOTINO);
  else
    ip = idup(cp->cwd);
  101ce8:	b8 f8 ff ff ff       	mov    $0xfffffff8,%eax
// Increment reference count for ip.
// Returns ip to enable ip = idup(ip1) idiom.
struct inode*
idup(struct inode *ip)
{
  acquire(&icache.lock);
  101ced:	83 ec 0c             	sub    $0xc,%esp
  struct inode *ip, *next;

  if(*path == '/')
    ip = iget(ROOTDEV, ROOTINO);
  else
    ip = idup(cp->cwd);
  101cf0:	65 8b 00             	mov    %gs:(%eax),%eax
  101cf3:	8b 70 68             	mov    0x68(%eax),%esi
// Increment reference count for ip.
// Returns ip to enable ip = idup(ip1) idiom.
struct inode*
idup(struct inode *ip)
{
  acquire(&icache.lock);
  101cf6:	68 c0 ba 10 00       	push   $0x10bac0
  101cfb:	e8 40 20 00 00       	call   103d40 <acquire>
  ip->ref++;
  101d00:	83 46 08 01          	addl   $0x1,0x8(%esi)
  release(&icache.lock);
  101d04:	c7 04 24 c0 ba 10 00 	movl   $0x10bac0,(%esp)
  101d0b:	e8 10 22 00 00       	call   103f20 <release>
  101d10:	83 c4 10             	add    $0x10,%esp
  101d13:	eb 06                	jmp    101d1b <namex+0x4b>
  101d15:	8d 76 00             	lea    0x0(%esi),%esi
{
  char *s;
  int len;

  while(*path == '/')
    path++;
  101d18:	83 c3 01             	add    $0x1,%ebx
skipelem(char *path, char *name)
{
  char *s;
  int len;

  while(*path == '/')
  101d1b:	0f b6 03             	movzbl (%ebx),%eax
  101d1e:	3c 2f                	cmp    $0x2f,%al
  101d20:	74 f6                	je     101d18 <namex+0x48>
    path++;
  if(*path == 0)
  101d22:	84 c0                	test   %al,%al
  101d24:	0f 84 c7 00 00 00    	je     101df1 <namex+0x121>
    return 0;
  s = path;
  while(*path != '/' && *path != 0)
  101d2a:	0f b6 03             	movzbl (%ebx),%eax
  101d2d:	89 dd                	mov    %ebx,%ebp
  101d2f:	84 c0                	test   %al,%al
  101d31:	0f 84 95 00 00 00    	je     101dcc <namex+0xfc>
  101d37:	3c 2f                	cmp    $0x2f,%al
  101d39:	75 09                	jne    101d44 <namex+0x74>
  101d3b:	e9 8c 00 00 00       	jmp    101dcc <namex+0xfc>
  101d40:	84 c0                	test   %al,%al
  101d42:	74 0b                	je     101d4f <namex+0x7f>
    path++;
  101d44:	83 c5 01             	add    $0x1,%ebp
  while(*path == '/')
    path++;
  if(*path == 0)
    return 0;
  s = path;
  while(*path != '/' && *path != 0)
  101d47:	0f b6 45 00          	movzbl 0x0(%ebp),%eax
  101d4b:	3c 2f                	cmp    $0x2f,%al
  101d4d:	75 f1                	jne    101d40 <namex+0x70>
  101d4f:	89 e9                	mov    %ebp,%ecx
  101d51:	29 d9                	sub    %ebx,%ecx
    path++;
  len = path - s;
  if(len >= DIRSIZ)
  101d53:	83 f9 0d             	cmp    $0xd,%ecx
  101d56:	7e 78                	jle    101dd0 <namex+0x100>
    memmove(name, s, DIRSIZ);
  101d58:	83 ec 04             	sub    $0x4,%esp
  101d5b:	6a 0e                	push   $0xe
  101d5d:	53                   	push   %ebx
    path++;
  if(*path == 0)
    return 0;
  s = path;
  while(*path != '/' && *path != 0)
    path++;
  101d5e:	89 eb                	mov    %ebp,%ebx
  len = path - s;
  if(len >= DIRSIZ)
    memmove(name, s, DIRSIZ);
  101d60:	57                   	push   %edi
  101d61:	e8 8a 22 00 00       	call   103ff0 <memmove>
  101d66:	83 c4 10             	add    $0x10,%esp
  else {
    memmove(name, s, len);
    name[len] = 0;
  }
  while(*path == '/')
  101d69:	80 7d 00 2f          	cmpb   $0x2f,0x0(%ebp)
  101d6d:	75 09                	jne    101d78 <namex+0xa8>
  101d6f:	90                   	nop
    path++;
  101d70:	83 c3 01             	add    $0x1,%ebx
    memmove(name, s, DIRSIZ);
  else {
    memmove(name, s, len);
    name[len] = 0;
  }
  while(*path == '/')
  101d73:	80 3b 2f             	cmpb   $0x2f,(%ebx)
  101d76:	74 f8                	je     101d70 <namex+0xa0>
    ip = iget(ROOTDEV, ROOTINO);
  else
    ip = idup(cp->cwd);

  while((path = skipelem(path, name)) != 0){
    ilock(ip);
  101d78:	83 ec 0c             	sub    $0xc,%esp
  101d7b:	56                   	push   %esi
  101d7c:	e8 7f f7 ff ff       	call   101500 <ilock>
    if(ip->type != T_DIR){
  101d81:	83 c4 10             	add    $0x10,%esp
  101d84:	66 83 7e 10 01       	cmpw   $0x1,0x10(%esi)
  101d89:	75 78                	jne    101e03 <namex+0x133>
      iunlockput(ip);
      return 0;
    }
    if(parent && *path == '\0'){
  101d8b:	8b 54 24 08          	mov    0x8(%esp),%edx
  101d8f:	85 d2                	test   %edx,%edx
  101d91:	74 09                	je     101d9c <namex+0xcc>
  101d93:	80 3b 00             	cmpb   $0x0,(%ebx)
  101d96:	0f 84 9b 00 00 00    	je     101e37 <namex+0x167>
      // Stop one level early.
      iunlock(ip);
      return ip;
    }
    if((next = dirlookup(ip, name, 0)) == 0){
  101d9c:	83 ec 04             	sub    $0x4,%esp
  101d9f:	6a 00                	push   $0x0
  101da1:	57                   	push   %edi
  101da2:	56                   	push   %esi
  101da3:	e8 18 fe ff ff       	call   101bc0 <dirlookup>
  101da8:	83 c4 10             	add    $0x10,%esp
  101dab:	85 c0                	test   %eax,%eax
  101dad:	89 c5                	mov    %eax,%ebp
  101daf:	74 52                	je     101e03 <namex+0x133>

// Common idiom: unlock, then put.
void
iunlockput(struct inode *ip)
{
  iunlock(ip);
  101db1:	83 ec 0c             	sub    $0xc,%esp
  101db4:	56                   	push   %esi
  101db5:	e8 56 f8 ff ff       	call   101610 <iunlock>
  iput(ip);
  101dba:	89 34 24             	mov    %esi,(%esp)
  101dbd:	89 ee                	mov    %ebp,%esi
  101dbf:	e8 dc f9 ff ff       	call   1017a0 <iput>
  101dc4:	83 c4 10             	add    $0x10,%esp
  101dc7:	e9 4f ff ff ff       	jmp    101d1b <namex+0x4b>
  while(*path == '/')
    path++;
  if(*path == 0)
    return 0;
  s = path;
  while(*path != '/' && *path != 0)
  101dcc:	31 c9                	xor    %ecx,%ecx
  101dce:	66 90                	xchg   %ax,%ax
    path++;
  len = path - s;
  if(len >= DIRSIZ)
    memmove(name, s, DIRSIZ);
  else {
    memmove(name, s, len);
  101dd0:	83 ec 04             	sub    $0x4,%esp
  101dd3:	51                   	push   %ecx
  101dd4:	89 4c 24 14          	mov    %ecx,0x14(%esp)
  101dd8:	53                   	push   %ebx
    name[len] = 0;
  101dd9:	89 eb                	mov    %ebp,%ebx
    path++;
  len = path - s;
  if(len >= DIRSIZ)
    memmove(name, s, DIRSIZ);
  else {
    memmove(name, s, len);
  101ddb:	57                   	push   %edi
  101ddc:	e8 0f 22 00 00       	call   103ff0 <memmove>
    name[len] = 0;
  101de1:	8b 4c 24 1c          	mov    0x1c(%esp),%ecx
  101de5:	83 c4 10             	add    $0x10,%esp
  101de8:	c6 04 0f 00          	movb   $0x0,(%edi,%ecx,1)
  101dec:	e9 78 ff ff ff       	jmp    101d69 <namex+0x99>
      return 0;
    }
    iunlockput(ip);
    ip = next;
  }
  if(parent){
  101df1:	8b 44 24 08          	mov    0x8(%esp),%eax
  101df5:	85 c0                	test   %eax,%eax
  101df7:	75 54                	jne    101e4d <namex+0x17d>
  101df9:	89 f0                	mov    %esi,%eax
    iput(ip);
    return 0;
  }
  return ip;
}
  101dfb:	83 c4 1c             	add    $0x1c,%esp
  101dfe:	5b                   	pop    %ebx
  101dff:	5e                   	pop    %esi
  101e00:	5f                   	pop    %edi
  101e01:	5d                   	pop    %ebp
  101e02:	c3                   	ret    

// Common idiom: unlock, then put.
void
iunlockput(struct inode *ip)
{
  iunlock(ip);
  101e03:	83 ec 0c             	sub    $0xc,%esp
  101e06:	56                   	push   %esi
  101e07:	e8 04 f8 ff ff       	call   101610 <iunlock>
  iput(ip);
  101e0c:	89 34 24             	mov    %esi,(%esp)
  101e0f:	e8 8c f9 ff ff       	call   1017a0 <iput>
      iunlock(ip);
      return ip;
    }
    if((next = dirlookup(ip, name, 0)) == 0){
      iunlockput(ip);
      return 0;
  101e14:	83 c4 10             	add    $0x10,%esp
  101e17:	31 c0                	xor    %eax,%eax
  if(parent){
    iput(ip);
    return 0;
  }
  return ip;
}
  101e19:	83 c4 1c             	add    $0x1c,%esp
  101e1c:	5b                   	pop    %ebx
  101e1d:	5e                   	pop    %esi
  101e1e:	5f                   	pop    %edi
  101e1f:	5d                   	pop    %ebp
  101e20:	c3                   	ret    
namex(char *path, int parent, char *name)
{
  struct inode *ip, *next;

  if(*path == '/')
    ip = iget(ROOTDEV, ROOTINO);
  101e21:	ba 01 00 00 00       	mov    $0x1,%edx
  101e26:	b8 01 00 00 00       	mov    $0x1,%eax
  101e2b:	e8 50 f3 ff ff       	call   101180 <iget>
  101e30:	89 c6                	mov    %eax,%esi
  101e32:	e9 e4 fe ff ff       	jmp    101d1b <namex+0x4b>
      iunlockput(ip);
      return 0;
    }
    if(parent && *path == '\0'){
      // Stop one level early.
      iunlock(ip);
  101e37:	83 ec 0c             	sub    $0xc,%esp
  101e3a:	56                   	push   %esi
  101e3b:	e8 d0 f7 ff ff       	call   101610 <iunlock>
      return ip;
  101e40:	83 c4 10             	add    $0x10,%esp
  101e43:	89 f0                	mov    %esi,%eax
  if(parent){
    iput(ip);
    return 0;
  }
  return ip;
}
  101e45:	83 c4 1c             	add    $0x1c,%esp
  101e48:	5b                   	pop    %ebx
  101e49:	5e                   	pop    %esi
  101e4a:	5f                   	pop    %edi
  101e4b:	5d                   	pop    %ebp
  101e4c:	c3                   	ret    
    }
    iunlockput(ip);
    ip = next;
  }
  if(parent){
    iput(ip);
  101e4d:	83 ec 0c             	sub    $0xc,%esp
  101e50:	56                   	push   %esi
  101e51:	e8 4a f9 ff ff       	call   1017a0 <iput>
    return 0;
  101e56:	83 c4 10             	add    $0x10,%esp
  101e59:	31 c0                	xor    %eax,%eax
  101e5b:	eb 9e                	jmp    101dfb <namex+0x12b>
  101e5d:	8d 76 00             	lea    0x0(%esi),%esi

00101e60 <dirlink>:
}

// Write a new directory entry (name, inum) into the directory dp.
int
dirlink(struct inode *dp, char *name, uint inum)
{
  101e60:	55                   	push   %ebp
  101e61:	57                   	push   %edi
  101e62:	56                   	push   %esi
  101e63:	53                   	push   %ebx
  101e64:	83 ec 20             	sub    $0x20,%esp
  101e67:	8b 74 24 34          	mov    0x34(%esp),%esi
  101e6b:	8b 6c 24 38          	mov    0x38(%esp),%ebp
  int off;
  struct dirent de;
  struct inode *ip;

  // Check that name is not present.
  if((ip = dirlookup(dp, name, 0)) != 0){
  101e6f:	6a 00                	push   $0x0
  101e71:	55                   	push   %ebp
  101e72:	56                   	push   %esi
  101e73:	e8 48 fd ff ff       	call   101bc0 <dirlookup>
  101e78:	83 c4 10             	add    $0x10,%esp
  101e7b:	85 c0                	test   %eax,%eax
  101e7d:	75 67                	jne    101ee6 <dirlink+0x86>
    iput(ip);
    return -1;
  }

  // Look for an empty dirent.
  for(off = 0; off < dp->size; off += sizeof(de)){
  101e7f:	8b 5e 18             	mov    0x18(%esi),%ebx
  101e82:	89 e7                	mov    %esp,%edi
  101e84:	85 db                	test   %ebx,%ebx
  101e86:	74 29                	je     101eb1 <dirlink+0x51>
  101e88:	31 db                	xor    %ebx,%ebx
  101e8a:	89 e7                	mov    %esp,%edi
  101e8c:	eb 0a                	jmp    101e98 <dirlink+0x38>
  101e8e:	66 90                	xchg   %ax,%ax
  101e90:	83 c3 10             	add    $0x10,%ebx
  101e93:	39 5e 18             	cmp    %ebx,0x18(%esi)
  101e96:	76 19                	jbe    101eb1 <dirlink+0x51>
    if(readi(dp, (char*)&de, off, sizeof(de)) != sizeof(de))
  101e98:	6a 10                	push   $0x10
  101e9a:	53                   	push   %ebx
  101e9b:	57                   	push   %edi
  101e9c:	56                   	push   %esi
  101e9d:	e8 ae fa ff ff       	call   101950 <readi>
  101ea2:	83 c4 10             	add    $0x10,%esp
  101ea5:	83 f8 10             	cmp    $0x10,%eax
  101ea8:	75 4f                	jne    101ef9 <dirlink+0x99>
      panic("dirlink read");
    if(de.inum == 0)
  101eaa:	66 83 3c 24 00       	cmpw   $0x0,(%esp)
  101eaf:	75 df                	jne    101e90 <dirlink+0x30>
      break;
  }

  strncpy(de.name, name, DIRSIZ);
  101eb1:	83 ec 04             	sub    $0x4,%esp
  101eb4:	6a 0e                	push   $0xe
  101eb6:	55                   	push   %ebp
  101eb7:	8d 44 24 0e          	lea    0xe(%esp),%eax
  101ebb:	50                   	push   %eax
  101ebc:	e8 ff 21 00 00       	call   1040c0 <strncpy>
  de.inum = inum;
  101ec1:	8b 44 24 48          	mov    0x48(%esp),%eax
  101ec5:	66 89 44 24 10       	mov    %ax,0x10(%esp)
  if(writei(dp, (char*)&de, off, sizeof(de)) != sizeof(de))
  101eca:	6a 10                	push   $0x10
  101ecc:	53                   	push   %ebx
  101ecd:	57                   	push   %edi
  101ece:	56                   	push   %esi
  101ecf:	e8 8c fb ff ff       	call   101a60 <writei>
  101ed4:	83 c4 20             	add    $0x20,%esp
  101ed7:	83 f8 10             	cmp    $0x10,%eax
  101eda:	75 2a                	jne    101f06 <dirlink+0xa6>
    panic("dirlink");
  
  return 0;
  101edc:	31 c0                	xor    %eax,%eax
}
  101ede:	83 c4 1c             	add    $0x1c,%esp
  101ee1:	5b                   	pop    %ebx
  101ee2:	5e                   	pop    %esi
  101ee3:	5f                   	pop    %edi
  101ee4:	5d                   	pop    %ebp
  101ee5:	c3                   	ret    
  struct dirent de;
  struct inode *ip;

  // Check that name is not present.
  if((ip = dirlookup(dp, name, 0)) != 0){
    iput(ip);
  101ee6:	83 ec 0c             	sub    $0xc,%esp
  101ee9:	50                   	push   %eax
  101eea:	e8 b1 f8 ff ff       	call   1017a0 <iput>
    return -1;
  101eef:	83 c4 10             	add    $0x10,%esp
  101ef2:	b8 ff ff ff ff       	mov    $0xffffffff,%eax
  101ef7:	eb e5                	jmp    101ede <dirlink+0x7e>
  }

  // Look for an empty dirent.
  for(off = 0; off < dp->size; off += sizeof(de)){
    if(readi(dp, (char*)&de, off, sizeof(de)) != sizeof(de))
      panic("dirlink read");
  101ef9:	83 ec 0c             	sub    $0xc,%esp
  101efc:	68 cb 60 10 00       	push   $0x1060cb
  101f01:	e8 1a eb ff ff       	call   100a20 <panic>
  }

  strncpy(de.name, name, DIRSIZ);
  de.inum = inum;
  if(writei(dp, (char*)&de, off, sizeof(de)) != sizeof(de))
    panic("dirlink");
  101f06:	83 ec 0c             	sub    $0xc,%esp
  101f09:	68 2b 66 10 00       	push   $0x10662b
  101f0e:	e8 0d eb ff ff       	call   100a20 <panic>
  101f13:	8d b6 00 00 00 00    	lea    0x0(%esi),%esi
  101f19:	8d bc 27 00 00 00 00 	lea    0x0(%edi,%eiz,1),%edi

00101f20 <namei>:
  return ip;
}

struct inode*
namei(char *path)
{
  101f20:	83 ec 1c             	sub    $0x1c,%esp
  char name[DIRSIZ];
  return namex(path, 0, name);
  101f23:	31 d2                	xor    %edx,%edx
  101f25:	8b 44 24 20          	mov    0x20(%esp),%eax
  101f29:	8d 4c 24 02          	lea    0x2(%esp),%ecx
  101f2d:	e8 9e fd ff ff       	call   101cd0 <namex>
}
  101f32:	83 c4 1c             	add    $0x1c,%esp
  101f35:	c3                   	ret    
  101f36:	8d 76 00             	lea    0x0(%esi),%esi
  101f39:	8d bc 27 00 00 00 00 	lea    0x0(%edi,%eiz,1),%edi

00101f40 <nameiparent>:

struct inode*
nameiparent(char *path, char *name)
{
  return namex(path, 1, name);
  101f40:	8b 4c 24 08          	mov    0x8(%esp),%ecx
  101f44:	8b 44 24 04          	mov    0x4(%esp),%eax
  101f48:	ba 01 00 00 00       	mov    $0x1,%edx
  101f4d:	e9 7e fd ff ff       	jmp    101cd0 <namex>
  101f52:	66 90                	xchg   %ax,%ax
  101f54:	66 90                	xchg   %ax,%ax
  101f56:	66 90                	xchg   %ax,%ax
  101f58:	66 90                	xchg   %ax,%ax
  101f5a:	66 90                	xchg   %ax,%ax
  101f5c:	66 90                	xchg   %ax,%ax
  101f5e:	66 90                	xchg   %ax,%ax

00101f60 <idestart>:
}

// Start the request for b.  Caller must hold idelock.
static void
idestart(struct buf *b)
{
  101f60:	56                   	push   %esi
  101f61:	53                   	push   %ebx
  101f62:	83 ec 04             	sub    $0x4,%esp
  if(b == 0)
  101f65:	85 c0                	test   %eax,%eax
  101f67:	0f 84 97 00 00 00    	je     102004 <idestart+0xa4>
  101f6d:	89 c3                	mov    %eax,%ebx
static inline uchar
inb(ushort port)
{
  uchar data;

  asm volatile("in %1,%0" : "=a" (data) : "d" (port));
  101f6f:	ba f7 01 00 00       	mov    $0x1f7,%edx
  101f74:	8d 74 26 00          	lea    0x0(%esi,%eiz,1),%esi
  101f78:	ec                   	in     (%dx),%al
static int
idewait(int checkerr)
{
  int r;

  while(((r = inb(0x1f7)) & (IDE_BSY|IDE_DRDY)) != IDE_DRDY) 
  101f79:	83 e0 c0             	and    $0xffffffc0,%eax
  101f7c:	3c 40                	cmp    $0x40,%al
  101f7e:	75 f8                	jne    101f78 <idestart+0x18>
}

static inline void
outb(ushort port, uchar data)
{
  asm volatile("out %0,%1" : : "a" (data), "d" (port));
  101f80:	ba f6 03 00 00       	mov    $0x3f6,%edx
  101f85:	31 c0                	xor    %eax,%eax
  101f87:	ee                   	out    %al,(%dx)
  101f88:	ba f2 01 00 00       	mov    $0x1f2,%edx
  101f8d:	b8 01 00 00 00       	mov    $0x1,%eax
  101f92:	ee                   	out    %al,(%dx)
    panic("idestart");

  idewait(0);
  outb(0x3f6, 0);  // generate interrupt
  outb(0x1f2, 1);  // number of sectors
  outb(0x1f3, b->sector & 0xff);
  101f93:	8b 4b 08             	mov    0x8(%ebx),%ecx
  101f96:	ba f3 01 00 00       	mov    $0x1f3,%edx
  101f9b:	89 c8                	mov    %ecx,%eax
  101f9d:	ee                   	out    %al,(%dx)
  101f9e:	89 c8                	mov    %ecx,%eax
  101fa0:	ba f4 01 00 00       	mov    $0x1f4,%edx
  101fa5:	c1 e8 08             	shr    $0x8,%eax
  101fa8:	ee                   	out    %al,(%dx)
  101fa9:	89 c8                	mov    %ecx,%eax
  101fab:	ba f5 01 00 00       	mov    $0x1f5,%edx
  101fb0:	c1 e8 10             	shr    $0x10,%eax
  101fb3:	ee                   	out    %al,(%dx)
  101fb4:	0f b6 43 04          	movzbl 0x4(%ebx),%eax
  101fb8:	c1 e9 18             	shr    $0x18,%ecx
  101fbb:	ba f6 01 00 00       	mov    $0x1f6,%edx
  101fc0:	83 e1 0f             	and    $0xf,%ecx
  101fc3:	83 e0 01             	and    $0x1,%eax
  101fc6:	c1 e0 04             	shl    $0x4,%eax
  101fc9:	09 c8                	or     %ecx,%eax
  101fcb:	83 c8 e0             	or     $0xffffffe0,%eax
  101fce:	ee                   	out    %al,(%dx)
  outb(0x1f4, (b->sector >> 8) & 0xff);
  outb(0x1f5, (b->sector >> 16) & 0xff);
  outb(0x1f6, 0xe0 | ((b->dev&1)<<4) | ((b->sector>>24)&0x0f));
  if(b->flags & B_DIRTY){
  101fcf:	f6 03 04             	testb  $0x4,(%ebx)
  101fd2:	ba f7 01 00 00       	mov    $0x1f7,%edx
  101fd7:	75 0f                	jne    101fe8 <idestart+0x88>
  101fd9:	b8 20 00 00 00       	mov    $0x20,%eax
  101fde:	ee                   	out    %al,(%dx)
    outb(0x1f7, IDE_CMD_WRITE);
    outsl(0x1f0, b->data, 512/4);
  } else {
    outb(0x1f7, IDE_CMD_READ);
  }
}
  101fdf:	83 c4 04             	add    $0x4,%esp
  101fe2:	5b                   	pop    %ebx
  101fe3:	5e                   	pop    %esi
  101fe4:	c3                   	ret    
  101fe5:	8d 76 00             	lea    0x0(%esi),%esi
  101fe8:	b8 30 00 00 00       	mov    $0x30,%eax
  101fed:	ee                   	out    %al,(%dx)
}

static inline void
outsl(int port, const void *addr, int cnt)
{
  asm volatile("cld; rep outsl" :
  101fee:	b9 80 00 00 00       	mov    $0x80,%ecx
  outb(0x1f4, (b->sector >> 8) & 0xff);
  outb(0x1f5, (b->sector >> 16) & 0xff);
  outb(0x1f6, 0xe0 | ((b->dev&1)<<4) | ((b->sector>>24)&0x0f));
  if(b->flags & B_DIRTY){
    outb(0x1f7, IDE_CMD_WRITE);
    outsl(0x1f0, b->data, 512/4);
  101ff3:	8d 73 18             	lea    0x18(%ebx),%esi
  101ff6:	ba f0 01 00 00       	mov    $0x1f0,%edx
  101ffb:	fc                   	cld    
  101ffc:	f3 6f                	rep outsl %ds:(%esi),(%dx)
  } else {
    outb(0x1f7, IDE_CMD_READ);
  }
}
  101ffe:	83 c4 04             	add    $0x4,%esp
  102001:	5b                   	pop    %ebx
  102002:	5e                   	pop    %esi
  102003:	c3                   	ret    
// Start the request for b.  Caller must hold idelock.
static void
idestart(struct buf *b)
{
  if(b == 0)
    panic("idestart");
  102004:	83 ec 0c             	sub    $0xc,%esp
  102007:	68 d8 60 10 00       	push   $0x1060d8
  10200c:	e8 0f ea ff ff       	call   100a20 <panic>
  102011:	eb 0d                	jmp    102020 <ideinit>
  102013:	90                   	nop
  102014:	90                   	nop
  102015:	90                   	nop
  102016:	90                   	nop
  102017:	90                   	nop
  102018:	90                   	nop
  102019:	90                   	nop
  10201a:	90                   	nop
  10201b:	90                   	nop
  10201c:	90                   	nop
  10201d:	90                   	nop
  10201e:	90                   	nop
  10201f:	90                   	nop

00102020 <ideinit>:
  return 0;
}

void
ideinit(void)
{
  102020:	83 ec 14             	sub    $0x14,%esp
  int i;

  initlock(&idelock, "ide");
  102023:	68 e1 60 10 00       	push   $0x1060e1
  102028:	68 40 98 10 00       	push   $0x109840
  10202d:	e8 ee 1c 00 00       	call   103d20 <initlock>
  picenable(IRQ_IDE);
  102032:	c7 04 24 0e 00 00 00 	movl   $0xe,(%esp)
  102039:	e8 42 0c 00 00       	call   102c80 <picenable>
  ioapicenable(IRQ_IDE, ncpu - 1);
  10203e:	58                   	pop    %eax
  10203f:	a1 e0 d0 10 00       	mov    0x10d0e0,%eax
  102044:	5a                   	pop    %edx
  102045:	83 e8 01             	sub    $0x1,%eax
  102048:	50                   	push   %eax
  102049:	6a 0e                	push   $0xe
  10204b:	e8 c0 02 00 00       	call   102310 <ioapicenable>
  102050:	83 c4 10             	add    $0x10,%esp
static inline uchar
inb(ushort port)
{
  uchar data;

  asm volatile("in %1,%0" : "=a" (data) : "d" (port));
  102053:	ba f7 01 00 00       	mov    $0x1f7,%edx
  102058:	90                   	nop
  102059:	8d b4 26 00 00 00 00 	lea    0x0(%esi,%eiz,1),%esi
  102060:	ec                   	in     (%dx),%al
static int
idewait(int checkerr)
{
  int r;

  while(((r = inb(0x1f7)) & (IDE_BSY|IDE_DRDY)) != IDE_DRDY) 
  102061:	83 e0 c0             	and    $0xffffffc0,%eax
  102064:	3c 40                	cmp    $0x40,%al
  102066:	75 f8                	jne    102060 <ideinit+0x40>
}

static inline void
outb(ushort port, uchar data)
{
  asm volatile("out %0,%1" : : "a" (data), "d" (port));
  102068:	ba f6 01 00 00       	mov    $0x1f6,%edx
  10206d:	b8 f0 ff ff ff       	mov    $0xfffffff0,%eax
  102072:	ee                   	out    %al,(%dx)
  102073:	b9 e8 03 00 00       	mov    $0x3e8,%ecx
static inline uchar
inb(ushort port)
{
  uchar data;

  asm volatile("in %1,%0" : "=a" (data) : "d" (port));
  102078:	ba f7 01 00 00       	mov    $0x1f7,%edx
  10207d:	eb 06                	jmp    102085 <ideinit+0x65>
  10207f:	90                   	nop
  ioapicenable(IRQ_IDE, ncpu - 1);
  idewait(0);
  
  // Check if disk 1 is present
  outb(0x1f6, 0xe0 | (1<<4));
  for(i=0; i<1000; i++){
  102080:	83 e9 01             	sub    $0x1,%ecx
  102083:	74 0f                	je     102094 <ideinit+0x74>
  102085:	ec                   	in     (%dx),%al
    if(inb(0x1f7) != 0){
  102086:	84 c0                	test   %al,%al
  102088:	74 f6                	je     102080 <ideinit+0x60>
      havedisk1 = 1;
  10208a:	c7 05 20 98 10 00 01 	movl   $0x1,0x109820
  102091:	00 00 00 
}

static inline void
outb(ushort port, uchar data)
{
  asm volatile("out %0,%1" : : "a" (data), "d" (port));
  102094:	ba f6 01 00 00       	mov    $0x1f6,%edx
  102099:	b8 e0 ff ff ff       	mov    $0xffffffe0,%eax
  10209e:	ee                   	out    %al,(%dx)
    }
  }
  
  // Switch back to disk 0.
  outb(0x1f6, 0xe0 | (0<<4));
}
  10209f:	83 c4 0c             	add    $0xc,%esp
  1020a2:	c3                   	ret    
  1020a3:	8d b6 00 00 00 00    	lea    0x0(%esi),%esi
  1020a9:	8d bc 27 00 00 00 00 	lea    0x0(%edi,%eiz,1),%edi

001020b0 <ideintr>:
}

// Interrupt handler.
void
ideintr(void)
{
  1020b0:	57                   	push   %edi
  1020b1:	56                   	push   %esi
  1020b2:	53                   	push   %ebx
  struct buf *b;

  // Take first buffer off queue.
  acquire(&idelock);
  1020b3:	83 ec 0c             	sub    $0xc,%esp
  1020b6:	68 40 98 10 00       	push   $0x109840
  1020bb:	e8 80 1c 00 00       	call   103d40 <acquire>
  if((b = idequeue) == 0){
  1020c0:	8b 1d 24 98 10 00    	mov    0x109824,%ebx
  1020c6:	83 c4 10             	add    $0x10,%esp
  1020c9:	85 db                	test   %ebx,%ebx
  1020cb:	74 76                	je     102143 <ideintr+0x93>
    return;
  }
  idequeue = b->qnext;

  // Read data if needed.
  if(!(b->flags & B_DIRTY) && idewait(1) >= 0)
  1020cd:	8b 33                	mov    (%ebx),%esi
  if((b = idequeue) == 0){
    release(&idelock);
    cprintf("Spurious IDE interrupt.\n");
    return;
  }
  idequeue = b->qnext;
  1020cf:	8b 43 14             	mov    0x14(%ebx),%eax

  // Read data if needed.
  if(!(b->flags & B_DIRTY) && idewait(1) >= 0)
  1020d2:	f7 c6 04 00 00 00    	test   $0x4,%esi
  if((b = idequeue) == 0){
    release(&idelock);
    cprintf("Spurious IDE interrupt.\n");
    return;
  }
  idequeue = b->qnext;
  1020d8:	a3 24 98 10 00       	mov    %eax,0x109824

  // Read data if needed.
  if(!(b->flags & B_DIRTY) && idewait(1) >= 0)
  1020dd:	74 39                	je     102118 <ideintr+0x68>
    insl(0x1f0, b->data, 512/4);
  
  // Wake process waiting for this buf.
  b->flags |= B_VALID;
  b->flags &= ~B_DIRTY;
  1020df:	83 e6 fb             	and    $0xfffffffb,%esi
  wakeup(b);
  1020e2:	83 ec 0c             	sub    $0xc,%esp
  if(!(b->flags & B_DIRTY) && idewait(1) >= 0)
    insl(0x1f0, b->data, 512/4);
  
  // Wake process waiting for this buf.
  b->flags |= B_VALID;
  b->flags &= ~B_DIRTY;
  1020e5:	83 ce 02             	or     $0x2,%esi
  1020e8:	89 33                	mov    %esi,(%ebx)
  wakeup(b);
  1020ea:	53                   	push   %ebx
  1020eb:	e8 60 18 00 00       	call   103950 <wakeup>
  
  // Start disk on next buf in queue.
  if(idequeue != 0)
  1020f0:	a1 24 98 10 00       	mov    0x109824,%eax
  1020f5:	83 c4 10             	add    $0x10,%esp
  1020f8:	85 c0                	test   %eax,%eax
  1020fa:	74 05                	je     102101 <ideintr+0x51>
    idestart(idequeue);
  1020fc:	e8 5f fe ff ff       	call   101f60 <idestart>

  release(&idelock);
  102101:	83 ec 0c             	sub    $0xc,%esp
  102104:	68 40 98 10 00       	push   $0x109840
  102109:	e8 12 1e 00 00       	call   103f20 <release>
  10210e:	83 c4 10             	add    $0x10,%esp
}
  102111:	5b                   	pop    %ebx
  102112:	5e                   	pop    %esi
  102113:	5f                   	pop    %edi
  102114:	c3                   	ret    
  102115:	8d 76 00             	lea    0x0(%esi),%esi
static inline uchar
inb(ushort port)
{
  uchar data;

  asm volatile("in %1,%0" : "=a" (data) : "d" (port));
  102118:	ba f7 01 00 00       	mov    $0x1f7,%edx
  10211d:	8d 76 00             	lea    0x0(%esi),%esi
  102120:	ec                   	in     (%dx),%al
static int
idewait(int checkerr)
{
  int r;

  while(((r = inb(0x1f7)) & (IDE_BSY|IDE_DRDY)) != IDE_DRDY) 
  102121:	89 c1                	mov    %eax,%ecx
  102123:	83 e1 c0             	and    $0xffffffc0,%ecx
  102126:	80 f9 40             	cmp    $0x40,%cl
  102129:	75 f5                	jne    102120 <ideintr+0x70>
    ;
  if(checkerr && (r & (IDE_DF|IDE_ERR)) != 0)
  10212b:	a8 21                	test   $0x21,%al
  10212d:	75 b0                	jne    1020df <ideintr+0x2f>
  }
  idequeue = b->qnext;

  // Read data if needed.
  if(!(b->flags & B_DIRTY) && idewait(1) >= 0)
    insl(0x1f0, b->data, 512/4);
  10212f:	8d 7b 18             	lea    0x18(%ebx),%edi
}

static inline void
insl(int port, void *addr, int cnt)
{
  asm volatile("cld; rep insl" :
  102132:	b9 80 00 00 00       	mov    $0x80,%ecx
  102137:	ba f0 01 00 00       	mov    $0x1f0,%edx
  10213c:	fc                   	cld    
  10213d:	f3 6d                	rep insl (%dx),%es:(%edi)
  10213f:	8b 33                	mov    (%ebx),%esi
  102141:	eb 9c                	jmp    1020df <ideintr+0x2f>
  struct buf *b;

  // Take first buffer off queue.
  acquire(&idelock);
  if((b = idequeue) == 0){
    release(&idelock);
  102143:	83 ec 0c             	sub    $0xc,%esp
  102146:	68 40 98 10 00       	push   $0x109840
  10214b:	e8 d0 1d 00 00       	call   103f20 <release>
    cprintf("Spurious IDE interrupt.\n");
  102150:	c7 04 24 e5 60 10 00 	movl   $0x1060e5,(%esp)
  102157:	e8 44 e5 ff ff       	call   1006a0 <cprintf>
    return;
  10215c:	83 c4 10             	add    $0x10,%esp
  10215f:	eb b0                	jmp    102111 <ideintr+0x61>
  102161:	eb 0d                	jmp    102170 <iderw>
  102163:	90                   	nop
  102164:	90                   	nop
  102165:	90                   	nop
  102166:	90                   	nop
  102167:	90                   	nop
  102168:	90                   	nop
  102169:	90                   	nop
  10216a:	90                   	nop
  10216b:	90                   	nop
  10216c:	90                   	nop
  10216d:	90                   	nop
  10216e:	90                   	nop
  10216f:	90                   	nop

00102170 <iderw>:
// Sync buf with disk. 
// If B_DIRTY is set, write buf to disk, clear B_DIRTY, set B_VALID.
// Else if B_VALID is not set, read buf from disk, set B_VALID.
void
iderw(struct buf *b)
{
  102170:	53                   	push   %ebx
  102171:	83 ec 08             	sub    $0x8,%esp
  102174:	8b 5c 24 10          	mov    0x10(%esp),%ebx
  struct buf **pp;

  if(!(b->flags & B_BUSY))
  102178:	8b 03                	mov    (%ebx),%eax
  10217a:	a8 01                	test   $0x1,%al
  10217c:	0f 84 aa 00 00 00    	je     10222c <iderw+0xbc>
    panic("iderw: buf not busy");
  if((b->flags & (B_VALID|B_DIRTY)) == B_VALID)
  102182:	83 e0 06             	and    $0x6,%eax
  102185:	83 f8 02             	cmp    $0x2,%eax
  102188:	0f 84 b8 00 00 00    	je     102246 <iderw+0xd6>
    panic("iderw: nothing to do");
  if(b->dev != 0 && !havedisk1)
  10218e:	8b 53 04             	mov    0x4(%ebx),%edx
  102191:	85 d2                	test   %edx,%edx
  102193:	74 0d                	je     1021a2 <iderw+0x32>
  102195:	a1 20 98 10 00       	mov    0x109820,%eax
  10219a:	85 c0                	test   %eax,%eax
  10219c:	0f 84 97 00 00 00    	je     102239 <iderw+0xc9>
    panic("idrw: ide disk 1 not present");

  acquire(&idelock);
  1021a2:	83 ec 0c             	sub    $0xc,%esp
  1021a5:	68 40 98 10 00       	push   $0x109840
  1021aa:	e8 91 1b 00 00       	call   103d40 <acquire>

  // Append b to idequeue.
  b->qnext = 0;
  for(pp=&idequeue; *pp; pp=&(*pp)->qnext)
  1021af:	8b 15 24 98 10 00    	mov    0x109824,%edx
  1021b5:	83 c4 10             	add    $0x10,%esp
    panic("idrw: ide disk 1 not present");

  acquire(&idelock);

  // Append b to idequeue.
  b->qnext = 0;
  1021b8:	c7 43 14 00 00 00 00 	movl   $0x0,0x14(%ebx)
  for(pp=&idequeue; *pp; pp=&(*pp)->qnext)
  1021bf:	85 d2                	test   %edx,%edx
  1021c1:	75 07                	jne    1021ca <iderw+0x5a>
  1021c3:	eb 57                	jmp    10221c <iderw+0xac>
  1021c5:	8d 76 00             	lea    0x0(%esi),%esi
  1021c8:	89 c2                	mov    %eax,%edx
  1021ca:	8b 42 14             	mov    0x14(%edx),%eax
  1021cd:	85 c0                	test   %eax,%eax
  1021cf:	75 f7                	jne    1021c8 <iderw+0x58>
  1021d1:	83 c2 14             	add    $0x14,%edx
    ;
  *pp = b;
  1021d4:	89 1a                	mov    %ebx,(%edx)
  
  // Start disk if necessary.
  if(idequeue == b)
  1021d6:	3b 1d 24 98 10 00    	cmp    0x109824,%ebx
  1021dc:	74 45                	je     102223 <iderw+0xb3>
    idestart(b);
  
  // Wait for request to finish.
  // Assuming will not sleep too long: ignore cp->killed.
  while((b->flags & (B_VALID|B_DIRTY)) != B_VALID)
  1021de:	8b 03                	mov    (%ebx),%eax
  1021e0:	83 e0 06             	and    $0x6,%eax
  1021e3:	83 f8 02             	cmp    $0x2,%eax
  1021e6:	74 23                	je     10220b <iderw+0x9b>
  1021e8:	90                   	nop
  1021e9:	8d b4 26 00 00 00 00 	lea    0x0(%esi,%eiz,1),%esi
    sleep(b, &idelock);
  1021f0:	83 ec 08             	sub    $0x8,%esp
  1021f3:	68 40 98 10 00       	push   $0x109840
  1021f8:	53                   	push   %ebx
  1021f9:	e8 a2 16 00 00       	call   1038a0 <sleep>
  if(idequeue == b)
    idestart(b);
  
  // Wait for request to finish.
  // Assuming will not sleep too long: ignore cp->killed.
  while((b->flags & (B_VALID|B_DIRTY)) != B_VALID)
  1021fe:	8b 03                	mov    (%ebx),%eax
  102200:	83 c4 10             	add    $0x10,%esp
  102203:	83 e0 06             	and    $0x6,%eax
  102206:	83 f8 02             	cmp    $0x2,%eax
  102209:	75 e5                	jne    1021f0 <iderw+0x80>
    sleep(b, &idelock);

  release(&idelock);
  10220b:	c7 44 24 10 40 98 10 	movl   $0x109840,0x10(%esp)
  102212:	00 
}
  102213:	83 c4 08             	add    $0x8,%esp
  102216:	5b                   	pop    %ebx
  // Wait for request to finish.
  // Assuming will not sleep too long: ignore cp->killed.
  while((b->flags & (B_VALID|B_DIRTY)) != B_VALID)
    sleep(b, &idelock);

  release(&idelock);
  102217:	e9 04 1d 00 00       	jmp    103f20 <release>

  acquire(&idelock);

  // Append b to idequeue.
  b->qnext = 0;
  for(pp=&idequeue; *pp; pp=&(*pp)->qnext)
  10221c:	ba 24 98 10 00       	mov    $0x109824,%edx
  102221:	eb b1                	jmp    1021d4 <iderw+0x64>
    ;
  *pp = b;
  
  // Start disk if necessary.
  if(idequeue == b)
    idestart(b);
  102223:	89 d8                	mov    %ebx,%eax
  102225:	e8 36 fd ff ff       	call   101f60 <idestart>
  10222a:	eb b2                	jmp    1021de <iderw+0x6e>
iderw(struct buf *b)
{
  struct buf **pp;

  if(!(b->flags & B_BUSY))
    panic("iderw: buf not busy");
  10222c:	83 ec 0c             	sub    $0xc,%esp
  10222f:	68 fe 60 10 00       	push   $0x1060fe
  102234:	e8 e7 e7 ff ff       	call   100a20 <panic>
  if((b->flags & (B_VALID|B_DIRTY)) == B_VALID)
    panic("iderw: nothing to do");
  if(b->dev != 0 && !havedisk1)
    panic("idrw: ide disk 1 not present");
  102239:	83 ec 0c             	sub    $0xc,%esp
  10223c:	68 27 61 10 00       	push   $0x106127
  102241:	e8 da e7 ff ff       	call   100a20 <panic>
  struct buf **pp;

  if(!(b->flags & B_BUSY))
    panic("iderw: buf not busy");
  if((b->flags & (B_VALID|B_DIRTY)) == B_VALID)
    panic("iderw: nothing to do");
  102246:	83 ec 0c             	sub    $0xc,%esp
  102249:	68 12 61 10 00       	push   $0x106112
  10224e:	e8 cd e7 ff ff       	call   100a20 <panic>
  102253:	66 90                	xchg   %ax,%ax
  102255:	66 90                	xchg   %ax,%ax
  102257:	66 90                	xchg   %ax,%ax
  102259:	66 90                	xchg   %ax,%ax
  10225b:	66 90                	xchg   %ax,%ax
  10225d:	66 90                	xchg   %ax,%ax
  10225f:	90                   	nop

00102260 <ioapicinit>:
void
ioapicinit(void)
{
  int i, id, maxintr;

  if(!ismp)
  102260:	a1 e4 ca 10 00       	mov    0x10cae4,%eax
  102265:	85 c0                	test   %eax,%eax
  102267:	0f 84 99 00 00 00    	je     102306 <ioapicinit+0xa6>
  ioapic->data = data;
}

void
ioapicinit(void)
{
  10226d:	57                   	push   %edi
  int i, id, maxintr;

  if(!ismp)
    return;

  ioapic = (volatile struct ioapic*)IOAPIC;
  10226e:	c7 05 94 ca 10 00 00 	movl   $0xfec00000,0x10ca94
  102275:	00 c0 fe 
  ioapic->data = data;
}

void
ioapicinit(void)
{
  102278:	56                   	push   %esi
  102279:	53                   	push   %ebx
};

static uint
ioapicread(int reg)
{
  ioapic->reg = reg;
  10227a:	c7 05 00 00 c0 fe 01 	movl   $0x1,0xfec00000
  102281:	00 00 00 
  return ioapic->data;
  102284:	8b 3d 10 00 c0 fe    	mov    0xfec00010,%edi
};

static uint
ioapicread(int reg)
{
  ioapic->reg = reg;
  10228a:	c7 05 00 00 c0 fe 00 	movl   $0x0,0xfec00000
  102291:	00 00 00 
  return ioapic->data;
  102294:	8b 15 10 00 c0 fe    	mov    0xfec00010,%edx
    return;

  ioapic = (volatile struct ioapic*)IOAPIC;
  maxintr = (ioapicread(REG_VER) >> 16) & 0xFF;
  id = ioapicread(REG_ID) >> 24;
  if(id != ioapicid)
  10229a:	0f b6 0d e0 ca 10 00 	movzbl 0x10cae0,%ecx

  if(!ismp)
    return;

  ioapic = (volatile struct ioapic*)IOAPIC;
  maxintr = (ioapicread(REG_VER) >> 16) & 0xFF;
  1022a1:	89 f8                	mov    %edi,%eax
  id = ioapicread(REG_ID) >> 24;
  if(id != ioapicid)
  1022a3:	c1 ea 18             	shr    $0x18,%edx

  if(!ismp)
    return;

  ioapic = (volatile struct ioapic*)IOAPIC;
  maxintr = (ioapicread(REG_VER) >> 16) & 0xFF;
  1022a6:	c1 e8 10             	shr    $0x10,%eax
  1022a9:	0f b6 f8             	movzbl %al,%edi
  1022ac:	b8 00 00 c0 fe       	mov    $0xfec00000,%eax
  id = ioapicread(REG_ID) >> 24;
  if(id != ioapicid)
  1022b1:	39 ca                	cmp    %ecx,%edx
  1022b3:	74 15                	je     1022ca <ioapicinit+0x6a>
    cprintf("ioapicinit: id isn't equal to ioapicid; not a MP\n");
  1022b5:	83 ec 0c             	sub    $0xc,%esp
  1022b8:	68 44 61 10 00       	push   $0x106144
  1022bd:	e8 de e3 ff ff       	call   1006a0 <cprintf>
  1022c2:	a1 94 ca 10 00       	mov    0x10ca94,%eax
  1022c7:	83 c4 10             	add    $0x10,%esp
  1022ca:	83 c7 21             	add    $0x21,%edi
  1022cd:	b9 11 00 00 00       	mov    $0x11,%ecx
  1022d2:	ba 20 00 00 00       	mov    $0x20,%edx
  1022d7:	89 f6                	mov    %esi,%esi
  1022d9:	8d bc 27 00 00 00 00 	lea    0x0(%edi,%eiz,1),%edi

  // Mark all interrupts edge-triggered, active high, disabled,
  // and not routed to any CPUs.
  for(i = 0; i <= maxintr; i++){
    ioapicwrite(REG_TABLE+2*i, INT_DISABLED | (IRQ_OFFSET + i));
  1022e0:	89 d3                	mov    %edx,%ebx
  1022e2:	8d 71 ff             	lea    -0x1(%ecx),%esi
  1022e5:	83 c2 01             	add    $0x1,%edx
  1022e8:	81 cb 00 00 01 00    	or     $0x10000,%ebx
}

static void
ioapicwrite(int reg, uint data)
{
  ioapic->reg = reg;
  1022ee:	89 30                	mov    %esi,(%eax)
  ioapic->data = data;
  1022f0:	89 58 10             	mov    %ebx,0x10(%eax)
}

static void
ioapicwrite(int reg, uint data)
{
  ioapic->reg = reg;
  1022f3:	89 08                	mov    %ecx,(%eax)
  1022f5:	83 c1 02             	add    $0x2,%ecx
  if(id != ioapicid)
    cprintf("ioapicinit: id isn't equal to ioapicid; not a MP\n");

  // Mark all interrupts edge-triggered, active high, disabled,
  // and not routed to any CPUs.
  for(i = 0; i <= maxintr; i++){
  1022f8:	39 fa                	cmp    %edi,%edx

static void
ioapicwrite(int reg, uint data)
{
  ioapic->reg = reg;
  ioapic->data = data;
  1022fa:	c7 40 10 00 00 00 00 	movl   $0x0,0x10(%eax)
  if(id != ioapicid)
    cprintf("ioapicinit: id isn't equal to ioapicid; not a MP\n");

  // Mark all interrupts edge-triggered, active high, disabled,
  // and not routed to any CPUs.
  for(i = 0; i <= maxintr; i++){
  102301:	75 dd                	jne    1022e0 <ioapicinit+0x80>
    ioapicwrite(REG_TABLE+2*i, INT_DISABLED | (IRQ_OFFSET + i));
    ioapicwrite(REG_TABLE+2*i+1, 0);
  }
}
  102303:	5b                   	pop    %ebx
  102304:	5e                   	pop    %esi
  102305:	5f                   	pop    %edi
  102306:	f3 c3                	repz ret 
  102308:	90                   	nop
  102309:	8d b4 26 00 00 00 00 	lea    0x0(%esi,%eiz,1),%esi

00102310 <ioapicenable>:

void
ioapicenable(int irq, int cpunum)
{
  if(!ismp)
  102310:	8b 15 e4 ca 10 00    	mov    0x10cae4,%edx
  }
}

void
ioapicenable(int irq, int cpunum)
{
  102316:	8b 44 24 04          	mov    0x4(%esp),%eax
  if(!ismp)
  10231a:	85 d2                	test   %edx,%edx
  10231c:	74 20                	je     10233e <ioapicenable+0x2e>
    return;

  // Mark interrupt edge-triggered, active high,
  // enabled, and routed to the given cpunum,
  // which happens to be that cpu's APIC ID.
  ioapicwrite(REG_TABLE+2*irq, IRQ_OFFSET + irq);
  10231e:	8d 48 20             	lea    0x20(%eax),%ecx
  102321:	8d 54 00 10          	lea    0x10(%eax,%eax,1),%edx
}

static void
ioapicwrite(int reg, uint data)
{
  ioapic->reg = reg;
  102325:	a1 94 ca 10 00       	mov    0x10ca94,%eax
  10232a:	89 10                	mov    %edx,(%eax)
  ioapic->data = data;
  10232c:	89 48 10             	mov    %ecx,0x10(%eax)
}

static void
ioapicwrite(int reg, uint data)
{
  ioapic->reg = reg;
  10232f:	83 c2 01             	add    $0x1,%edx

  // Mark interrupt edge-triggered, active high,
  // enabled, and routed to the given cpunum,
  // which happens to be that cpu's APIC ID.
  ioapicwrite(REG_TABLE+2*irq, IRQ_OFFSET + irq);
  ioapicwrite(REG_TABLE+2*irq+1, cpunum << 24);
  102332:	8b 4c 24 08          	mov    0x8(%esp),%ecx
}

static void
ioapicwrite(int reg, uint data)
{
  ioapic->reg = reg;
  102336:	89 10                	mov    %edx,(%eax)

  // Mark interrupt edge-triggered, active high,
  // enabled, and routed to the given cpunum,
  // which happens to be that cpu's APIC ID.
  ioapicwrite(REG_TABLE+2*irq, IRQ_OFFSET + irq);
  ioapicwrite(REG_TABLE+2*irq+1, cpunum << 24);
  102338:	c1 e1 18             	shl    $0x18,%ecx

static void
ioapicwrite(int reg, uint data)
{
  ioapic->reg = reg;
  ioapic->data = data;
  10233b:	89 48 10             	mov    %ecx,0x10(%eax)
  10233e:	f3 c3                	repz ret 

00102340 <kfree>:
// which normally should have been returned by a
// call to kalloc(len).  (The exception is when
// initializing the allocator; see kinit above.)
void
kfree(char *v, int len)
{
  102340:	55                   	push   %ebp
  102341:	57                   	push   %edi
  102342:	56                   	push   %esi
  102343:	53                   	push   %ebx
  102344:	83 ec 0c             	sub    $0xc,%esp
  102347:	8b 7c 24 24          	mov    0x24(%esp),%edi
  10234b:	8b 5c 24 20          	mov    0x20(%esp),%ebx
  struct run *r, *rend, **rp, *p, *pend;

  if(len <= 0 || len % PAGE)
  10234f:	85 ff                	test   %edi,%edi
  102351:	0f 8e e4 00 00 00    	jle    10243b <kfree+0xfb>
  102357:	f7 c7 ff 0f 00 00    	test   $0xfff,%edi
  10235d:	0f 85 d8 00 00 00    	jne    10243b <kfree+0xfb>
    panic("kfree");

  // Fill with junk to catch dangling refs.
  memset(v, 1, len);
  102363:	83 ec 04             	sub    $0x4,%esp

  acquire(&kmem.lock);
  p = (struct run*)v;
  pend = (struct run*)(v + len);
  102366:	8d 34 3b             	lea    (%ebx,%edi,1),%esi

  if(len <= 0 || len % PAGE)
    panic("kfree");

  // Fill with junk to catch dangling refs.
  memset(v, 1, len);
  102369:	57                   	push   %edi
  10236a:	6a 01                	push   $0x1
  10236c:	53                   	push   %ebx
  10236d:	e8 fe 1b 00 00       	call   103f70 <memset>

  acquire(&kmem.lock);
  102372:	c7 04 24 a0 ca 10 00 	movl   $0x10caa0,(%esp)
  102379:	e8 c2 19 00 00       	call   103d40 <acquire>
  p = (struct run*)v;
  pend = (struct run*)(v + len);
  for(rp=&kmem.freelist; (r=*rp) != 0 && r <= pend; rp=&r->next){
  10237e:	a1 d4 ca 10 00       	mov    0x10cad4,%eax
  102383:	83 c4 10             	add    $0x10,%esp
  102386:	85 c0                	test   %eax,%eax
  102388:	74 63                	je     1023ed <kfree+0xad>
  10238a:	39 c6                	cmp    %eax,%esi
  10238c:	72 5f                	jb     1023ed <kfree+0xad>
    rend = (struct run*)((char*)r + r->len);
  10238e:	8b 48 04             	mov    0x4(%eax),%ecx
    if(r <= p && p < rend)
  102391:	39 c3                	cmp    %eax,%ebx

  acquire(&kmem.lock);
  p = (struct run*)v;
  pend = (struct run*)(v + len);
  for(rp=&kmem.freelist; (r=*rp) != 0 && r <= pend; rp=&r->next){
    rend = (struct run*)((char*)r + r->len);
  102393:	8d 14 08             	lea    (%eax,%ecx,1),%edx
    if(r <= p && p < rend)
  102396:	72 08                	jb     1023a0 <kfree+0x60>
  102398:	39 d3                	cmp    %edx,%ebx
  10239a:	0f 82 8e 00 00 00    	jb     10242e <kfree+0xee>
      panic("freeing free page");
    if(pend == r){  // p next to r: replace r with p
  1023a0:	39 c6                	cmp    %eax,%esi
  1023a2:	75 2a                	jne    1023ce <kfree+0x8e>
  1023a4:	eb 6e                	jmp    102414 <kfree+0xd4>
  1023a6:	8d 76 00             	lea    0x0(%esi),%esi
  1023a9:	8d bc 27 00 00 00 00 	lea    0x0(%edi,%eiz,1),%edi
  memset(v, 1, len);

  acquire(&kmem.lock);
  p = (struct run*)v;
  pend = (struct run*)(v + len);
  for(rp=&kmem.freelist; (r=*rp) != 0 && r <= pend; rp=&r->next){
  1023b0:	89 c5                	mov    %eax,%ebp
  1023b2:	8b 00                	mov    (%eax),%eax
  1023b4:	85 c0                	test   %eax,%eax
  1023b6:	74 40                	je     1023f8 <kfree+0xb8>
  1023b8:	39 c6                	cmp    %eax,%esi
  1023ba:	72 3c                	jb     1023f8 <kfree+0xb8>
    rend = (struct run*)((char*)r + r->len);
  1023bc:	8b 48 04             	mov    0x4(%eax),%ecx
    if(r <= p && p < rend)
  1023bf:	39 c3                	cmp    %eax,%ebx

  acquire(&kmem.lock);
  p = (struct run*)v;
  pend = (struct run*)(v + len);
  for(rp=&kmem.freelist; (r=*rp) != 0 && r <= pend; rp=&r->next){
    rend = (struct run*)((char*)r + r->len);
  1023c1:	8d 14 08             	lea    (%eax,%ecx,1),%edx
    if(r <= p && p < rend)
  1023c4:	72 04                	jb     1023ca <kfree+0x8a>
  1023c6:	39 d3                	cmp    %edx,%ebx
  1023c8:	72 64                	jb     10242e <kfree+0xee>
      panic("freeing free page");
    if(pend == r){  // p next to r: replace r with p
  1023ca:	39 c6                	cmp    %eax,%esi
  1023cc:	74 52                	je     102420 <kfree+0xe0>
      p->len = len + r->len;
      p->next = r->next;
      *rp = p;
      goto out;
    }
    if(rend == p){  // r next to p: replace p with r
  1023ce:	39 d3                	cmp    %edx,%ebx
  1023d0:	75 de                	jne    1023b0 <kfree+0x70>
      r->len += len;
      if(r->next && r->next == pend){  // r now next to r->next?
  1023d2:	8b 10                	mov    (%eax),%edx
      p->next = r->next;
      *rp = p;
      goto out;
    }
    if(rend == p){  // r next to p: replace p with r
      r->len += len;
  1023d4:	01 f9                	add    %edi,%ecx
  1023d6:	89 48 04             	mov    %ecx,0x4(%eax)
      if(r->next && r->next == pend){  // r now next to r->next?
  1023d9:	39 d6                	cmp    %edx,%esi
  1023db:	75 23                	jne    102400 <kfree+0xc0>
  1023dd:	85 d2                	test   %edx,%edx
  1023df:	74 1f                	je     102400 <kfree+0xc0>
        r->len += r->next->len;
  1023e1:	03 4a 04             	add    0x4(%edx),%ecx
        r->next = r->next->next;
  1023e4:	8b 12                	mov    (%edx),%edx
  1023e6:	89 10                	mov    %edx,(%eax)
      goto out;
    }
    if(rend == p){  // r next to p: replace p with r
      r->len += len;
      if(r->next && r->next == pend){  // r now next to r->next?
        r->len += r->next->len;
  1023e8:	89 48 04             	mov    %ecx,0x4(%eax)
  1023eb:	eb 13                	jmp    102400 <kfree+0xc0>
  memset(v, 1, len);

  acquire(&kmem.lock);
  p = (struct run*)v;
  pend = (struct run*)(v + len);
  for(rp=&kmem.freelist; (r=*rp) != 0 && r <= pend; rp=&r->next){
  1023ed:	bd d4 ca 10 00       	mov    $0x10cad4,%ebp
  1023f2:	8d b6 00 00 00 00    	lea    0x0(%esi),%esi
      }
      goto out;
    }
  }
  // Insert p before r in list.
  p->len = len;
  1023f8:	89 7b 04             	mov    %edi,0x4(%ebx)
  p->next = r;
  1023fb:	89 03                	mov    %eax,(%ebx)
  *rp = p;
  1023fd:	89 5d 00             	mov    %ebx,0x0(%ebp)

 out:
  release(&kmem.lock);
  102400:	c7 44 24 20 a0 ca 10 	movl   $0x10caa0,0x20(%esp)
  102407:	00 
}
  102408:	83 c4 0c             	add    $0xc,%esp
  10240b:	5b                   	pop    %ebx
  10240c:	5e                   	pop    %esi
  10240d:	5f                   	pop    %edi
  10240e:	5d                   	pop    %ebp
  p->len = len;
  p->next = r;
  *rp = p;

 out:
  release(&kmem.lock);
  10240f:	e9 0c 1b 00 00       	jmp    103f20 <release>
  memset(v, 1, len);

  acquire(&kmem.lock);
  p = (struct run*)v;
  pend = (struct run*)(v + len);
  for(rp=&kmem.freelist; (r=*rp) != 0 && r <= pend; rp=&r->next){
  102414:	bd d4 ca 10 00       	mov    $0x10cad4,%ebp
  102419:	8d b4 26 00 00 00 00 	lea    0x0(%esi,%eiz,1),%esi
    rend = (struct run*)((char*)r + r->len);
    if(r <= p && p < rend)
      panic("freeing free page");
    if(pend == r){  // p next to r: replace r with p
      p->len = len + r->len;
      p->next = r->next;
  102420:	8b 00                	mov    (%eax),%eax
  for(rp=&kmem.freelist; (r=*rp) != 0 && r <= pend; rp=&r->next){
    rend = (struct run*)((char*)r + r->len);
    if(r <= p && p < rend)
      panic("freeing free page");
    if(pend == r){  // p next to r: replace r with p
      p->len = len + r->len;
  102422:	01 f9                	add    %edi,%ecx
  102424:	89 4b 04             	mov    %ecx,0x4(%ebx)
      p->next = r->next;
  102427:	89 03                	mov    %eax,(%ebx)
      *rp = p;
  102429:	89 5d 00             	mov    %ebx,0x0(%ebp)
      goto out;
  10242c:	eb d2                	jmp    102400 <kfree+0xc0>
  p = (struct run*)v;
  pend = (struct run*)(v + len);
  for(rp=&kmem.freelist; (r=*rp) != 0 && r <= pend; rp=&r->next){
    rend = (struct run*)((char*)r + r->len);
    if(r <= p && p < rend)
      panic("freeing free page");
  10242e:	83 ec 0c             	sub    $0xc,%esp
  102431:	68 7c 61 10 00       	push   $0x10617c
  102436:	e8 e5 e5 ff ff       	call   100a20 <panic>
kfree(char *v, int len)
{
  struct run *r, *rend, **rp, *p, *pend;

  if(len <= 0 || len % PAGE)
    panic("kfree");
  10243b:	83 ec 0c             	sub    $0xc,%esp
  10243e:	68 76 61 10 00       	push   $0x106176
  102443:	e8 d8 e5 ff ff       	call   100a20 <panic>
  102448:	90                   	nop
  102449:	8d b4 26 00 00 00 00 	lea    0x0(%esi,%eiz,1),%esi

00102450 <kinit>:
// This code cheats by just considering one megabyte of
// pages after _end.  Real systems would determine the
// amount of memory available in the system and use it all.
void
kinit(void)
{
  102450:	83 ec 14             	sub    $0x14,%esp
  extern int end;
  uint mem;
  char *start;

  initlock(&kmem.lock, "kmem");
  102453:	68 8e 61 10 00       	push   $0x10618e
  102458:	68 a0 ca 10 00       	push   $0x10caa0
  10245d:	e8 be 18 00 00       	call   103d20 <initlock>
  start = (char*) &end;
  start = (char*) (((uint)start + PAGE) & ~(PAGE-1));
  mem = 256; // assume computer has 256 pages of RAM
  cprintf("mem = %d\n", mem * PAGE);
  102462:	58                   	pop    %eax
  102463:	5a                   	pop    %edx
  102464:	68 00 00 10 00       	push   $0x100000
  102469:	68 93 61 10 00       	push   $0x106193
  10246e:	e8 2d e2 ff ff       	call   1006a0 <cprintf>
  kfree(start, mem * PAGE);
  102473:	59                   	pop    %ecx
  102474:	58                   	pop    %eax
  102475:	b8 84 08 11 00       	mov    $0x110884,%eax
  10247a:	68 00 00 10 00       	push   $0x100000
  10247f:	25 00 f0 ff ff       	and    $0xfffff000,%eax
  102484:	50                   	push   %eax
  102485:	e8 b6 fe ff ff       	call   102340 <kfree>
}
  10248a:	83 c4 1c             	add    $0x1c,%esp
  10248d:	c3                   	ret    
  10248e:	66 90                	xchg   %ax,%ax

00102490 <kalloc>:
// Allocate n bytes of physical memory.
// Returns a kernel-segment pointer.
// Returns 0 if the memory cannot be allocated.
char*
kalloc(int n)
{
  102490:	56                   	push   %esi
  102491:	53                   	push   %ebx
  102492:	83 ec 04             	sub    $0x4,%esp
  102495:	8b 74 24 10          	mov    0x10(%esp),%esi
  char *p;
  struct run *r, **rp;

  if(n % PAGE || n <= 0)
  102499:	f7 c6 ff 0f 00 00    	test   $0xfff,%esi
  10249f:	0f 85 a4 00 00 00    	jne    102549 <kalloc+0xb9>
  1024a5:	85 f6                	test   %esi,%esi
  1024a7:	0f 8e 9c 00 00 00    	jle    102549 <kalloc+0xb9>
    panic("kalloc");

  acquire(&kmem.lock);
  1024ad:	83 ec 0c             	sub    $0xc,%esp
  1024b0:	68 a0 ca 10 00       	push   $0x10caa0
  1024b5:	e8 86 18 00 00       	call   103d40 <acquire>
  for(rp=&kmem.freelist; (r=*rp) != 0; rp=&r->next){
  1024ba:	8b 15 d4 ca 10 00    	mov    0x10cad4,%edx
  1024c0:	83 c4 10             	add    $0x10,%esp
  1024c3:	85 d2                	test   %edx,%edx
  1024c5:	74 22                	je     1024e9 <kalloc+0x59>
    if(r->len == n){
  1024c7:	8b 42 04             	mov    0x4(%edx),%eax
  1024ca:	39 c6                	cmp    %eax,%esi
  1024cc:	74 3f                	je     10250d <kalloc+0x7d>
      *rp = r->next;
      release(&kmem.lock);
      return (char*)r;
    }
    if(r->len > n){
  1024ce:	7d 13                	jge    1024e3 <kalloc+0x53>
  1024d0:	eb 62                	jmp    102534 <kalloc+0xa4>
  1024d2:	8d b6 00 00 00 00    	lea    0x0(%esi),%esi
  if(n % PAGE || n <= 0)
    panic("kalloc");

  acquire(&kmem.lock);
  for(rp=&kmem.freelist; (r=*rp) != 0; rp=&r->next){
    if(r->len == n){
  1024d8:	8b 43 04             	mov    0x4(%ebx),%eax
  1024db:	39 c6                	cmp    %eax,%esi
  1024dd:	74 39                	je     102518 <kalloc+0x88>
  1024df:	89 da                	mov    %ebx,%edx
      *rp = r->next;
      release(&kmem.lock);
      return (char*)r;
    }
    if(r->len > n){
  1024e1:	7c 5d                	jl     102540 <kalloc+0xb0>

  if(n % PAGE || n <= 0)
    panic("kalloc");

  acquire(&kmem.lock);
  for(rp=&kmem.freelist; (r=*rp) != 0; rp=&r->next){
  1024e3:	8b 1a                	mov    (%edx),%ebx
  1024e5:	85 db                	test   %ebx,%ebx
  1024e7:	75 ef                	jne    1024d8 <kalloc+0x48>
      p = (char*)r + r->len;
      release(&kmem.lock);
      return p;
    }
  }
  release(&kmem.lock);
  1024e9:	83 ec 0c             	sub    $0xc,%esp
  1024ec:	68 a0 ca 10 00       	push   $0x10caa0
  1024f1:	e8 2a 1a 00 00       	call   103f20 <release>

  cprintf("kalloc: out of memory\n");
  1024f6:	c7 04 24 a4 61 10 00 	movl   $0x1061a4,(%esp)
  1024fd:	e8 9e e1 ff ff       	call   1006a0 <cprintf>
  return 0;
  102502:	83 c4 10             	add    $0x10,%esp
  102505:	31 c0                	xor    %eax,%eax
}
  102507:	83 c4 04             	add    $0x4,%esp
  10250a:	5b                   	pop    %ebx
  10250b:	5e                   	pop    %esi
  10250c:	c3                   	ret    
  if(n % PAGE || n <= 0)
    panic("kalloc");

  acquire(&kmem.lock);
  for(rp=&kmem.freelist; (r=*rp) != 0; rp=&r->next){
    if(r->len == n){
  10250d:	89 d3                	mov    %edx,%ebx

  if(n % PAGE || n <= 0)
    panic("kalloc");

  acquire(&kmem.lock);
  for(rp=&kmem.freelist; (r=*rp) != 0; rp=&r->next){
  10250f:	ba d4 ca 10 00       	mov    $0x10cad4,%edx
  102514:	8d 74 26 00          	lea    0x0(%esi,%eiz,1),%esi
    if(r->len == n){
      *rp = r->next;
  102518:	8b 03                	mov    (%ebx),%eax
  10251a:	89 02                	mov    %eax,(%edx)
      return (char*)r;
    }
    if(r->len > n){
      r->len -= n;
      p = (char*)r + r->len;
      release(&kmem.lock);
  10251c:	83 ec 0c             	sub    $0xc,%esp
  10251f:	68 a0 ca 10 00       	push   $0x10caa0
  102524:	e8 f7 19 00 00       	call   103f20 <release>
      return p;
  102529:	83 c4 10             	add    $0x10,%esp
  10252c:	89 d8                	mov    %ebx,%eax
  }
  release(&kmem.lock);

  cprintf("kalloc: out of memory\n");
  return 0;
}
  10252e:	83 c4 04             	add    $0x4,%esp
  102531:	5b                   	pop    %ebx
  102532:	5e                   	pop    %esi
  102533:	c3                   	ret    
    if(r->len == n){
      *rp = r->next;
      release(&kmem.lock);
      return (char*)r;
    }
    if(r->len > n){
  102534:	89 d3                	mov    %edx,%ebx
  102536:	8d 76 00             	lea    0x0(%esi),%esi
  102539:	8d bc 27 00 00 00 00 	lea    0x0(%edi,%eiz,1),%edi
      r->len -= n;
  102540:	29 f0                	sub    %esi,%eax
  102542:	89 43 04             	mov    %eax,0x4(%ebx)
      p = (char*)r + r->len;
  102545:	01 c3                	add    %eax,%ebx
  102547:	eb d3                	jmp    10251c <kalloc+0x8c>
{
  char *p;
  struct run *r, **rp;

  if(n % PAGE || n <= 0)
    panic("kalloc");
  102549:	83 ec 0c             	sub    $0xc,%esp
  10254c:	68 9d 61 10 00       	push   $0x10619d
  102551:	e8 ca e4 ff ff       	call   100a20 <panic>
  102556:	66 90                	xchg   %ax,%ax
  102558:	66 90                	xchg   %ax,%ax
  10255a:	66 90                	xchg   %ax,%ax
  10255c:	66 90                	xchg   %ax,%ax
  10255e:	66 90                	xchg   %ax,%ax

00102560 <kbdgetc>:
static inline uchar
inb(ushort port)
{
  uchar data;

  asm volatile("in %1,%0" : "=a" (data) : "d" (port));
  102560:	ba 64 00 00 00       	mov    $0x64,%edx
  102565:	ec                   	in     (%dx),%al
    normalmap, shiftmap, ctlmap, ctlmap
  };
  uint st, data, c;

  st = inb(KBSTATP);
  if((st & KBS_DIB) == 0)
  102566:	a8 01                	test   $0x1,%al
  102568:	0f 84 92 00 00 00    	je     102600 <kbdgetc+0xa0>
  10256e:	ba 60 00 00 00       	mov    $0x60,%edx
  102573:	ec                   	in     (%dx),%al
    return -1;
  data = inb(KBDATAP);
  102574:	0f b6 d0             	movzbl %al,%edx

  if(data == 0xE0){
  102577:	81 fa e0 00 00 00    	cmp    $0xe0,%edx
  10257d:	0f 84 8d 00 00 00    	je     102610 <kbdgetc+0xb0>
    shift |= E0ESC;
    return 0;
  } else if(data & 0x80){
  102583:	84 c0                	test   %al,%al
    // Key released
    data = (shift & E0ESC ? data : data & 0x7F);
  102585:	8b 0d 74 98 10 00    	mov    0x109874,%ecx
  data = inb(KBDATAP);

  if(data == 0xE0){
    shift |= E0ESC;
    return 0;
  } else if(data & 0x80){
  10258b:	79 23                	jns    1025b0 <kbdgetc+0x50>
    // Key released
    data = (shift & E0ESC ? data : data & 0x7F);
  10258d:	f6 c1 40             	test   $0x40,%cl
  102590:	75 05                	jne    102597 <kbdgetc+0x37>
  102592:	89 c2                	mov    %eax,%edx
  102594:	83 e2 7f             	and    $0x7f,%edx
    shift &= ~(shiftcode[data] | E0ESC);
  102597:	0f b6 82 e0 62 10 00 	movzbl 0x1062e0(%edx),%eax
  10259e:	83 c8 40             	or     $0x40,%eax
  1025a1:	0f b6 c0             	movzbl %al,%eax
  1025a4:	f7 d0                	not    %eax
  1025a6:	21 c8                	and    %ecx,%eax
  1025a8:	a3 74 98 10 00       	mov    %eax,0x109874
    return 0;
  1025ad:	31 c0                	xor    %eax,%eax
  1025af:	c3                   	ret    
  } else if(shift & E0ESC){
  1025b0:	f6 c1 40             	test   $0x40,%cl
  1025b3:	74 09                	je     1025be <kbdgetc+0x5e>
    // Last character was an E0 escape; or with 0x80
    data |= 0x80;
  1025b5:	83 c8 80             	or     $0xffffff80,%eax
    shift &= ~E0ESC;
  1025b8:	83 e1 bf             	and    $0xffffffbf,%ecx
    data = (shift & E0ESC ? data : data & 0x7F);
    shift &= ~(shiftcode[data] | E0ESC);
    return 0;
  } else if(shift & E0ESC){
    // Last character was an E0 escape; or with 0x80
    data |= 0x80;
  1025bb:	0f b6 d0             	movzbl %al,%edx
    shift &= ~E0ESC;
  }

  shift |= shiftcode[data];
  shift ^= togglecode[data];
  1025be:	0f b6 82 e0 62 10 00 	movzbl 0x1062e0(%edx),%eax
  1025c5:	09 c1                	or     %eax,%ecx
  1025c7:	0f b6 82 e0 61 10 00 	movzbl 0x1061e0(%edx),%eax
  1025ce:	31 c1                	xor    %eax,%ecx
  c = charcode[shift & (CTL | SHIFT)][data];
  1025d0:	89 c8                	mov    %ecx,%eax
    data |= 0x80;
    shift &= ~E0ESC;
  }

  shift |= shiftcode[data];
  shift ^= togglecode[data];
  1025d2:	89 0d 74 98 10 00    	mov    %ecx,0x109874
  c = charcode[shift & (CTL | SHIFT)][data];
  1025d8:	83 e0 03             	and    $0x3,%eax
  if(shift & CAPSLOCK){
  1025db:	83 e1 08             	and    $0x8,%ecx
    shift &= ~E0ESC;
  }

  shift |= shiftcode[data];
  shift ^= togglecode[data];
  c = charcode[shift & (CTL | SHIFT)][data];
  1025de:	8b 04 85 c0 61 10 00 	mov    0x1061c0(,%eax,4),%eax
  1025e5:	0f b6 04 10          	movzbl (%eax,%edx,1),%eax
  if(shift & CAPSLOCK){
  1025e9:	74 1a                	je     102605 <kbdgetc+0xa5>
    if('a' <= c && c <= 'z')
  1025eb:	8d 50 9f             	lea    -0x61(%eax),%edx
  1025ee:	83 fa 19             	cmp    $0x19,%edx
  1025f1:	77 2d                	ja     102620 <kbdgetc+0xc0>
      c += 'A' - 'a';
  1025f3:	83 e8 20             	sub    $0x20,%eax
  1025f6:	c3                   	ret    
  1025f7:	89 f6                	mov    %esi,%esi
  1025f9:	8d bc 27 00 00 00 00 	lea    0x0(%edi,%eiz,1),%edi
  };
  uint st, data, c;

  st = inb(KBSTATP);
  if((st & KBS_DIB) == 0)
    return -1;
  102600:	b8 ff ff ff ff       	mov    $0xffffffff,%eax
      c += 'A' - 'a';
    else if('A' <= c && c <= 'Z')
      c += 'a' - 'A';
  }
  return c;
}
  102605:	f3 c3                	repz ret 
  102607:	89 f6                	mov    %esi,%esi
  102609:	8d bc 27 00 00 00 00 	lea    0x0(%edi,%eiz,1),%edi
  if((st & KBS_DIB) == 0)
    return -1;
  data = inb(KBDATAP);

  if(data == 0xE0){
    shift |= E0ESC;
  102610:	83 0d 74 98 10 00 40 	orl    $0x40,0x109874
    return 0;
  102617:	31 c0                	xor    %eax,%eax
  102619:	c3                   	ret    
  10261a:	8d b6 00 00 00 00    	lea    0x0(%esi),%esi
  shift ^= togglecode[data];
  c = charcode[shift & (CTL | SHIFT)][data];
  if(shift & CAPSLOCK){
    if('a' <= c && c <= 'z')
      c += 'A' - 'a';
    else if('A' <= c && c <= 'Z')
  102620:	8d 48 bf             	lea    -0x41(%eax),%ecx
      c += 'a' - 'A';
  102623:	8d 50 20             	lea    0x20(%eax),%edx
  102626:	83 f9 19             	cmp    $0x19,%ecx
  102629:	0f 46 c2             	cmovbe %edx,%eax
  }
  return c;
  10262c:	c3                   	ret    
  10262d:	8d 76 00             	lea    0x0(%esi),%esi

00102630 <kbdintr>:
}

void
kbdintr(void)
{
  102630:	83 ec 18             	sub    $0x18,%esp
  consoleintr(kbdgetc);
  102633:	68 60 25 10 00       	push   $0x102560
  102638:	e8 13 e2 ff ff       	call   100850 <consoleintr>
}
  10263d:	83 c4 1c             	add    $0x1c,%esp
  102640:	c3                   	ret    
  102641:	66 90                	xchg   %ax,%ax
  102643:	66 90                	xchg   %ax,%ax
  102645:	66 90                	xchg   %ax,%ax
  102647:	66 90                	xchg   %ax,%ax
  102649:	66 90                	xchg   %ax,%ax
  10264b:	66 90                	xchg   %ax,%ax
  10264d:	66 90                	xchg   %ax,%ax
  10264f:	90                   	nop

00102650 <lapicinit>:

//PAGEBREAK!
void
lapicinit(int c)
{
  if(!lapic) 
  102650:	a1 d8 ca 10 00       	mov    0x10cad8,%eax
  102655:	85 c0                	test   %eax,%eax
  102657:	0f 84 c3 00 00 00    	je     102720 <lapicinit+0xd0>
volatile uint *lapic;  // Initialized in mp.c

static void
lapicw(int index, int value)
{
  lapic[index] = value;
  10265d:	c7 80 f0 00 00 00 3f 	movl   $0x13f,0xf0(%eax)
  102664:	01 00 00 
  lapic[ID];  // wait for write to finish, by reading
  102667:	8b 50 20             	mov    0x20(%eax),%edx
volatile uint *lapic;  // Initialized in mp.c

static void
lapicw(int index, int value)
{
  lapic[index] = value;
  10266a:	c7 80 e0 03 00 00 0b 	movl   $0xb,0x3e0(%eax)
  102671:	00 00 00 
  lapic[ID];  // wait for write to finish, by reading
  102674:	8b 50 20             	mov    0x20(%eax),%edx
volatile uint *lapic;  // Initialized in mp.c

static void
lapicw(int index, int value)
{
  lapic[index] = value;
  102677:	c7 80 20 03 00 00 20 	movl   $0x20020,0x320(%eax)
  10267e:	00 02 00 
  lapic[ID];  // wait for write to finish, by reading
  102681:	8b 50 20             	mov    0x20(%eax),%edx
volatile uint *lapic;  // Initialized in mp.c

static void
lapicw(int index, int value)
{
  lapic[index] = value;
  102684:	c7 80 80 03 00 00 80 	movl   $0x989680,0x380(%eax)
  10268b:	96 98 00 
  lapic[ID];  // wait for write to finish, by reading
  10268e:	8b 50 20             	mov    0x20(%eax),%edx
volatile uint *lapic;  // Initialized in mp.c

static void
lapicw(int index, int value)
{
  lapic[index] = value;
  102691:	c7 80 50 03 00 00 00 	movl   $0x10000,0x350(%eax)
  102698:	00 01 00 
  lapic[ID];  // wait for write to finish, by reading
  10269b:	8b 50 20             	mov    0x20(%eax),%edx
volatile uint *lapic;  // Initialized in mp.c

static void
lapicw(int index, int value)
{
  lapic[index] = value;
  10269e:	c7 80 60 03 00 00 00 	movl   $0x10000,0x360(%eax)
  1026a5:	00 01 00 
  lapic[ID];  // wait for write to finish, by reading
  1026a8:	8b 50 20             	mov    0x20(%eax),%edx
  lapicw(LINT0, MASKED);
  lapicw(LINT1, MASKED);

  // Disable performance counter overflow interrupts
  // on machines that provide that interrupt entry.
  if(((lapic[VER]>>16) & 0xFF) >= 4)
  1026ab:	8b 50 30             	mov    0x30(%eax),%edx
  1026ae:	c1 ea 10             	shr    $0x10,%edx
  1026b1:	80 fa 03             	cmp    $0x3,%dl
  1026b4:	77 72                	ja     102728 <lapicinit+0xd8>
volatile uint *lapic;  // Initialized in mp.c

static void
lapicw(int index, int value)
{
  lapic[index] = value;
  1026b6:	c7 80 70 03 00 00 33 	movl   $0x33,0x370(%eax)
  1026bd:	00 00 00 
  lapic[ID];  // wait for write to finish, by reading
  1026c0:	8b 50 20             	mov    0x20(%eax),%edx
volatile uint *lapic;  // Initialized in mp.c

static void
lapicw(int index, int value)
{
  lapic[index] = value;
  1026c3:	c7 80 80 02 00 00 00 	movl   $0x0,0x280(%eax)
  1026ca:	00 00 00 
  lapic[ID];  // wait for write to finish, by reading
  1026cd:	8b 50 20             	mov    0x20(%eax),%edx
volatile uint *lapic;  // Initialized in mp.c

static void
lapicw(int index, int value)
{
  lapic[index] = value;
  1026d0:	c7 80 80 02 00 00 00 	movl   $0x0,0x280(%eax)
  1026d7:	00 00 00 
  lapic[ID];  // wait for write to finish, by reading
  1026da:	8b 50 20             	mov    0x20(%eax),%edx
volatile uint *lapic;  // Initialized in mp.c

static void
lapicw(int index, int value)
{
  lapic[index] = value;
  1026dd:	c7 80 b0 00 00 00 00 	movl   $0x0,0xb0(%eax)
  1026e4:	00 00 00 
  lapic[ID];  // wait for write to finish, by reading
  1026e7:	8b 50 20             	mov    0x20(%eax),%edx
volatile uint *lapic;  // Initialized in mp.c

static void
lapicw(int index, int value)
{
  lapic[index] = value;
  1026ea:	c7 80 10 03 00 00 00 	movl   $0x0,0x310(%eax)
  1026f1:	00 00 00 
  lapic[ID];  // wait for write to finish, by reading
  1026f4:	8b 50 20             	mov    0x20(%eax),%edx
volatile uint *lapic;  // Initialized in mp.c

static void
lapicw(int index, int value)
{
  lapic[index] = value;
  1026f7:	c7 80 00 03 00 00 00 	movl   $0x88500,0x300(%eax)
  1026fe:	85 08 00 
  lapic[ID];  // wait for write to finish, by reading
  102701:	8b 50 20             	mov    0x20(%eax),%edx
  102704:	8d 74 26 00          	lea    0x0(%esi,%eiz,1),%esi
  lapicw(EOI, 0);

  // Send an Init Level De-Assert to synchronise arbitration ID's.
  lapicw(ICRHI, 0);
  lapicw(ICRLO, BCAST | INIT | LEVEL);
  while(lapic[ICRLO] & DELIVS)
  102708:	8b 90 00 03 00 00    	mov    0x300(%eax),%edx
  10270e:	80 e6 10             	and    $0x10,%dh
  102711:	75 f5                	jne    102708 <lapicinit+0xb8>
volatile uint *lapic;  // Initialized in mp.c

static void
lapicw(int index, int value)
{
  lapic[index] = value;
  102713:	c7 80 80 00 00 00 00 	movl   $0x0,0x80(%eax)
  10271a:	00 00 00 
  lapic[ID];  // wait for write to finish, by reading
  10271d:	8b 40 20             	mov    0x20(%eax),%eax
  102720:	f3 c3                	repz ret 
  102722:	8d b6 00 00 00 00    	lea    0x0(%esi),%esi
volatile uint *lapic;  // Initialized in mp.c

static void
lapicw(int index, int value)
{
  lapic[index] = value;
  102728:	c7 80 40 03 00 00 00 	movl   $0x10000,0x340(%eax)
  10272f:	00 01 00 
  lapic[ID];  // wait for write to finish, by reading
  102732:	8b 50 20             	mov    0x20(%eax),%edx
  102735:	e9 7c ff ff ff       	jmp    1026b6 <lapicinit+0x66>
  10273a:	8d b6 00 00 00 00    	lea    0x0(%esi),%esi

00102740 <cpu>:
  lapicw(TPR, 0);
}

int
cpu(void)
{
  102740:	83 ec 0c             	sub    $0xc,%esp

static inline uint
readeflags(void)
{
  uint eflags;
  asm volatile("pushfl; popl %0" : "=r" (eflags));
  102743:	9c                   	pushf  
  102744:	58                   	pop    %eax
  // Cannot call cpu when interrupts are enabled:
  // result not guaranteed to last long enough to be used!
  // Would prefer to panic but even printing is chancy here:
  // almost everything, including cprintf and panic, calls cpu,
  // often indirectly through acquire and release.
  if(readeflags()&FL_IF){
  102745:	f6 c4 02             	test   $0x2,%ah
  102748:	74 12                	je     10275c <cpu+0x1c>
    static int n;
    if(n++ == 0)
  10274a:	a1 78 98 10 00       	mov    0x109878,%eax
  10274f:	8d 50 01             	lea    0x1(%eax),%edx
  102752:	85 c0                	test   %eax,%eax
  102754:	89 15 78 98 10 00    	mov    %edx,0x109878
  10275a:	74 14                	je     102770 <cpu+0x30>
      cprintf("cpu called from %x with interrupts enabled\n",
        __builtin_return_address(0));
  }

  if(lapic)
  10275c:	a1 d8 ca 10 00       	mov    0x10cad8,%eax
  102761:	85 c0                	test   %eax,%eax
  102763:	74 28                	je     10278d <cpu+0x4d>
    return lapic[ID]>>24;
  102765:	8b 40 20             	mov    0x20(%eax),%eax
  return 0;
}
  102768:	83 c4 0c             	add    $0xc,%esp
      cprintf("cpu called from %x with interrupts enabled\n",
        __builtin_return_address(0));
  }

  if(lapic)
    return lapic[ID]>>24;
  10276b:	c1 e8 18             	shr    $0x18,%eax
  return 0;
}
  10276e:	c3                   	ret    
  10276f:	90                   	nop
  // almost everything, including cprintf and panic, calls cpu,
  // often indirectly through acquire and release.
  if(readeflags()&FL_IF){
    static int n;
    if(n++ == 0)
      cprintf("cpu called from %x with interrupts enabled\n",
  102770:	83 ec 08             	sub    $0x8,%esp
  102773:	ff 74 24 14          	pushl  0x14(%esp)
  102777:	68 e0 63 10 00       	push   $0x1063e0
  10277c:	e8 1f df ff ff       	call   1006a0 <cprintf>
        __builtin_return_address(0));
  }

  if(lapic)
  102781:	a1 d8 ca 10 00       	mov    0x10cad8,%eax
  // almost everything, including cprintf and panic, calls cpu,
  // often indirectly through acquire and release.
  if(readeflags()&FL_IF){
    static int n;
    if(n++ == 0)
      cprintf("cpu called from %x with interrupts enabled\n",
  102786:	83 c4 10             	add    $0x10,%esp
        __builtin_return_address(0));
  }

  if(lapic)
  102789:	85 c0                	test   %eax,%eax
  10278b:	75 d8                	jne    102765 <cpu+0x25>
    return lapic[ID]>>24;
  return 0;
  10278d:	31 c0                	xor    %eax,%eax
}
  10278f:	83 c4 0c             	add    $0xc,%esp
  102792:	c3                   	ret    
  102793:	8d b6 00 00 00 00    	lea    0x0(%esi),%esi
  102799:	8d bc 27 00 00 00 00 	lea    0x0(%edi,%eiz,1),%edi

001027a0 <lapiceoi>:

// Acknowledge interrupt.
void
lapiceoi(void)
{
  if(lapic)
  1027a0:	a1 d8 ca 10 00       	mov    0x10cad8,%eax
  1027a5:	85 c0                	test   %eax,%eax
  1027a7:	74 0d                	je     1027b6 <lapiceoi+0x16>
volatile uint *lapic;  // Initialized in mp.c

static void
lapicw(int index, int value)
{
  lapic[index] = value;
  1027a9:	c7 80 b0 00 00 00 00 	movl   $0x0,0xb0(%eax)
  1027b0:	00 00 00 
  lapic[ID];  // wait for write to finish, by reading
  1027b3:	8b 40 20             	mov    0x20(%eax),%eax
  1027b6:	f3 c3                	repz ret 
  1027b8:	90                   	nop
  1027b9:	8d b4 26 00 00 00 00 	lea    0x0(%esi,%eiz,1),%esi

001027c0 <microdelay>:

// Spin for a given number of microseconds.
// On real hardware would want to tune this dynamically.
void
microdelay(int us)
{
  1027c0:	83 ec 10             	sub    $0x10,%esp
  1027c3:	8b 54 24 14          	mov    0x14(%esp),%edx
  volatile int j = 0;
  1027c7:	c7 44 24 0c 00 00 00 	movl   $0x0,0xc(%esp)
  1027ce:	00 
  
  while(us-- > 0)
  1027cf:	85 d2                	test   %edx,%edx
  1027d1:	7e 3a                	jle    10280d <microdelay+0x4d>
  1027d3:	90                   	nop
  1027d4:	8d 74 26 00          	lea    0x0(%esi,%eiz,1),%esi
    for(j=0; j<10000; j++);
  1027d8:	c7 44 24 0c 00 00 00 	movl   $0x0,0xc(%esp)
  1027df:	00 
  1027e0:	8b 44 24 0c          	mov    0xc(%esp),%eax
  1027e4:	3d 0f 27 00 00       	cmp    $0x270f,%eax
  1027e9:	7f 1b                	jg     102806 <microdelay+0x46>
  1027eb:	90                   	nop
  1027ec:	8d 74 26 00          	lea    0x0(%esi,%eiz,1),%esi
  1027f0:	8b 44 24 0c          	mov    0xc(%esp),%eax
  1027f4:	83 c0 01             	add    $0x1,%eax
  1027f7:	89 44 24 0c          	mov    %eax,0xc(%esp)
  1027fb:	8b 44 24 0c          	mov    0xc(%esp),%eax
  1027ff:	3d 0f 27 00 00       	cmp    $0x270f,%eax
  102804:	7e ea                	jle    1027f0 <microdelay+0x30>
  102806:	83 ea 01             	sub    $0x1,%edx
void
microdelay(int us)
{
  volatile int j = 0;
  
  while(us-- > 0)
  102809:	85 d2                	test   %edx,%edx
  10280b:	7f cb                	jg     1027d8 <microdelay+0x18>
    for(j=0; j<10000; j++);
}
  10280d:	83 c4 10             	add    $0x10,%esp
  102810:	c3                   	ret    
  102811:	eb 0d                	jmp    102820 <lapicstartap>
  102813:	90                   	nop
  102814:	90                   	nop
  102815:	90                   	nop
  102816:	90                   	nop
  102817:	90                   	nop
  102818:	90                   	nop
  102819:	90                   	nop
  10281a:	90                   	nop
  10281b:	90                   	nop
  10281c:	90                   	nop
  10281d:	90                   	nop
  10281e:	90                   	nop
  10281f:	90                   	nop

00102820 <lapicstartap>:

// Start additional processor running bootstrap code at addr.
// See Appendix B of MultiProcessor Specification.
void
lapicstartap(uchar apicid, uint addr)
{
  102820:	57                   	push   %edi
  102821:	56                   	push   %esi
}

static inline void
outb(ushort port, uchar data)
{
  asm volatile("out %0,%1" : : "a" (data), "d" (port));
  102822:	ba 70 00 00 00       	mov    $0x70,%edx
  102827:	53                   	push   %ebx
  102828:	b8 0f 00 00 00       	mov    $0xf,%eax
  10282d:	83 ec 10             	sub    $0x10,%esp
